ARM GAS  C:\Users\sunyi\AppData\Local\Temp\ccjimDxZ.s 			page 1


   1              		.cpu cortex-m0
   2              		.fpu softvfp
   3              		.eabi_attribute 20, 1
   4              		.eabi_attribute 21, 1
   5              		.eabi_attribute 23, 3
   6              		.eabi_attribute 24, 1
   7              		.eabi_attribute 25, 1
   8              		.eabi_attribute 26, 1
   9              		.eabi_attribute 30, 6
  10              		.eabi_attribute 34, 0
  11              		.eabi_attribute 18, 4
  12              		.code	16
  13              		.file	"BLEApplications.c"
  14              		.text
  15              	.Ltext0:
  16              		.cfi_sections	.debug_frame
  17              		.comm	rgbHandle,12,4
  18              		.global	sendCapSenseSliderNotifications
  19              		.bss
  20              		.type	sendCapSenseSliderNotifications, %object
  21              		.size	sendCapSenseSliderNotifications, 1
  22              	sendCapSenseSliderNotifications:
  23 0000 00       		.space	1
  24              		.comm	RGBledData,4,4
  25              		.global	deviceConnected
  26              		.type	deviceConnected, %object
  27              		.size	deviceConnected, 1
  28              	deviceConnected:
  29 0001 00       		.space	1
  30              		.section	.text.CustomEventHandler,"ax",%progbits
  31              		.align	2
  32              		.global	CustomEventHandler
  33              		.code	16
  34              		.thumb_func
  35              		.type	CustomEventHandler, %function
  36              	CustomEventHandler:
  37              	.LFB35:
  38              		.file 1 ".\\BLEApplications.c"
   1:.\BLEApplications.c **** /*****************************************************************************
   2:.\BLEApplications.c **** * File Name: BleApplications.c
   3:.\BLEApplications.c **** *
   4:.\BLEApplications.c **** * Version: 1.0
   5:.\BLEApplications.c **** *
   6:.\BLEApplications.c **** * Description:
   7:.\BLEApplications.c **** * This file implements the BLE capability in the PSoC 4 BLE Lab 4.
   8:.\BLEApplications.c **** *
   9:.\BLEApplications.c **** * Hardware Dependency:
  10:.\BLEApplications.c **** * CY8CKIT-042 BLE Pioneer Kit
  11:.\BLEApplications.c **** *
  12:.\BLEApplications.c **** ******************************************************************************
  13:.\BLEApplications.c **** * Copyright (2014), Cypress Semiconductor Corporation.
  14:.\BLEApplications.c **** ******************************************************************************
  15:.\BLEApplications.c **** * This software is owned by Cypress Semiconductor Corporation (Cypress) and is
  16:.\BLEApplications.c **** * protected by and subject to worldwide patent protection (United States and
  17:.\BLEApplications.c **** * foreign), United States copyright laws and international treaty provisions.
  18:.\BLEApplications.c **** * Cypress hereby grants to licensee a personal, non-exclusive, non-transferable
  19:.\BLEApplications.c **** * license to copy, use, modify, create derivative works of, and compile the
ARM GAS  C:\Users\sunyi\AppData\Local\Temp\ccjimDxZ.s 			page 2


  20:.\BLEApplications.c **** * Cypress Source Code and derivative works for the sole purpose of creating
  21:.\BLEApplications.c **** * custom software in support of licensee product to be used only in conjunction
  22:.\BLEApplications.c **** * with a Cypress integrated circuit as specified in the applicable agreement.
  23:.\BLEApplications.c **** * Any reproduction, modification, translation, compilation, or representation of
  24:.\BLEApplications.c **** * this software except as specified above is prohibited without the express
  25:.\BLEApplications.c **** * written permission of Cypress.
  26:.\BLEApplications.c **** *
  27:.\BLEApplications.c **** * Disclaimer: CYPRESS MAKES NO WARRANTY OF ANY KIND, EXPRESS OR IMPLIED, WITH
  28:.\BLEApplications.c **** * REGARD TO THIS MATERIAL, INCLUDING, BUT NOT LIMITED TO, THE IMPLIED
  29:.\BLEApplications.c **** * WARRANTIES OF MERCHANTABILITY AND FITNESS FOR A PARTICULAR PURPOSE.
  30:.\BLEApplications.c **** * Cypress reserves the right to make changes without further notice to the
  31:.\BLEApplications.c **** * materials described herein. Cypress does not assume any liability arising out
  32:.\BLEApplications.c **** * of the application or use of any product or circuit described herein. Cypress
  33:.\BLEApplications.c **** * does not authorize its products for use as critical components in life-support
  34:.\BLEApplications.c **** * systems where a malfunction or failure may reasonably be expected to result in
  35:.\BLEApplications.c **** * significant injury to the user. The inclusion of Cypress' product in a life-
  36:.\BLEApplications.c **** * support systems application implies that the manufacturer assumes all risk of
  37:.\BLEApplications.c **** * such use and in doing so indemnifies Cypress against all charges. Use may be
  38:.\BLEApplications.c **** * limited by and subject to the applicable Cypress software license agreement.
  39:.\BLEApplications.c **** *****************************************************************************/
  40:.\BLEApplications.c **** 
  41:.\BLEApplications.c **** /*****************************************************************************
  42:.\BLEApplications.c **** * Included headers
  43:.\BLEApplications.c **** *****************************************************************************/
  44:.\BLEApplications.c **** #include <main.h>
  45:.\BLEApplications.c **** #include <BLEApplications.h>
  46:.\BLEApplications.c **** 
  47:.\BLEApplications.c **** 
  48:.\BLEApplications.c **** /*****************************************************************************
  49:.\BLEApplications.c **** * Static variables 
  50:.\BLEApplications.c **** *****************************************************************************/
  51:.\BLEApplications.c **** 
  52:.\BLEApplications.c **** /* 'rgbHandle' stores RGB control data parameters */
  53:.\BLEApplications.c **** CYBLE_GATT_HANDLE_VALUE_PAIR_T		rgbHandle;	
  54:.\BLEApplications.c **** 
  55:.\BLEApplications.c **** /*This flag is set when the Central device writes to CCC (Client Characteristic 
  56:.\BLEApplications.c **** * Configuration) of the CapSense slider Characteristic to enable notifications */
  57:.\BLEApplications.c **** uint8 sendCapSenseSliderNotifications = FALSE;	
  58:.\BLEApplications.c **** 
  59:.\BLEApplications.c **** /* Array to store the present RGB LED control data. The 4 bytes 
  60:.\BLEApplications.c **** * of the array represents {R, G, B, Intensity} */
  61:.\BLEApplications.c **** uint8 RGBledData[4];
  62:.\BLEApplications.c **** 
  63:.\BLEApplications.c **** /* This flag is used by application to know whether a Central 
  64:.\BLEApplications.c **** * device has been connected. This is updated in BLE event callback 
  65:.\BLEApplications.c **** * function*/
  66:.\BLEApplications.c **** uint8 deviceConnected = FALSE;
  67:.\BLEApplications.c **** 
  68:.\BLEApplications.c **** 
  69:.\BLEApplications.c **** /*******************************************************************************
  70:.\BLEApplications.c **** * Function Name: CustomEventHandler
  71:.\BLEApplications.c **** ********************************************************************************
  72:.\BLEApplications.c **** * Summary:
  73:.\BLEApplications.c **** * Call back event function to handle various events from BLE stack
  74:.\BLEApplications.c **** *
  75:.\BLEApplications.c **** * Parameters:
  76:.\BLEApplications.c **** *  event:		event returned
ARM GAS  C:\Users\sunyi\AppData\Local\Temp\ccjimDxZ.s 			page 3


  77:.\BLEApplications.c **** *  eventParam:	link to value of the events returned
  78:.\BLEApplications.c **** *
  79:.\BLEApplications.c **** * Return:
  80:.\BLEApplications.c **** *  void
  81:.\BLEApplications.c **** *
  82:.\BLEApplications.c **** *******************************************************************************/
  83:.\BLEApplications.c **** void CustomEventHandler(uint32 event, void * eventParam)
  84:.\BLEApplications.c **** {
  39              		.loc 1 84 0
  40              		.cfi_startproc
  41 0000 80B5     		push	{r7, lr}
  42              		.cfi_def_cfa_offset 8
  43              		.cfi_offset 7, -8
  44              		.cfi_offset 14, -4
  45 0002 88B0     		sub	sp, sp, #32
  46              		.cfi_def_cfa_offset 40
  47 0004 00AF     		add	r7, sp, #0
  48              		.cfi_def_cfa_register 7
  49 0006 7860     		str	r0, [r7, #4]
  50 0008 3960     		str	r1, [r7]
  85:.\BLEApplications.c ****     /* Local variable to strore the write request parameters */
  86:.\BLEApplications.c **** 	CYBLE_GATTS_WRITE_REQ_PARAM_T *wrReqParam;
  87:.\BLEApplications.c ****     
  88:.\BLEApplications.c ****     /* Local variable to store the current CCCD value */
  89:.\BLEApplications.c **** 	uint8 CapSenseCCCDvalue[2];
  90:.\BLEApplications.c **** 	
  91:.\BLEApplications.c **** 	/* Handle value to update the CCCD */
  92:.\BLEApplications.c **** 	CYBLE_GATT_HANDLE_VALUE_PAIR_T CapSenseNotificationCCCDhandle;
  93:.\BLEApplications.c ****    
  94:.\BLEApplications.c ****     switch(event)
  51              		.loc 1 94 0
  52 000a 7B68     		ldr	r3, [r7, #4]
  53 000c 282B     		cmp	r3, #40
  54 000e 0CD0     		beq	.L3
  55 0010 04D8     		bhi	.L4
  56 0012 012B     		cmp	r3, #1
  57 0014 09D0     		beq	.L3
  58 0016 262B     		cmp	r3, #38
  59 0018 0BD0     		beq	.L5
  95:.\BLEApplications.c ****     {
  96:.\BLEApplications.c ****         case CYBLE_EVT_STACK_ON:
  97:.\BLEApplications.c ****         case CYBLE_EVT_GAP_DEVICE_DISCONNECTED:
  98:.\BLEApplications.c **** 			/* Start Advertisement and enter Discoverable mode*/
  99:.\BLEApplications.c **** 			CyBle_GappStartAdvertisement(CYBLE_ADVERTISING_FAST);
 100:.\BLEApplications.c **** 			break;
 101:.\BLEApplications.c **** 			
 102:.\BLEApplications.c **** 		case CYBLE_EVT_GAPP_ADVERTISEMENT_START_STOP:
 103:.\BLEApplications.c **** 			/* Set the BLE state variable to control LED status */
 104:.\BLEApplications.c ****             if(CYBLE_STATE_DISCONNECTED == CyBle_GetState())
 105:.\BLEApplications.c ****             {
 106:.\BLEApplications.c ****                 /* Start Advertisement and enter Discoverable mode*/
 107:.\BLEApplications.c ****                 CyBle_GappStartAdvertisement(CYBLE_ADVERTISING_FAST);
 108:.\BLEApplications.c ****             }
 109:.\BLEApplications.c **** 			break;
 110:.\BLEApplications.c **** 			
 111:.\BLEApplications.c ****         case CYBLE_EVT_GATT_CONNECT_IND:
 112:.\BLEApplications.c **** 			/* This flag is used in application to check connection status */
ARM GAS  C:\Users\sunyi\AppData\Local\Temp\ccjimDxZ.s 			page 4


 113:.\BLEApplications.c **** 			deviceConnected = TRUE;
 114:.\BLEApplications.c **** 			break;
 115:.\BLEApplications.c ****         
 116:.\BLEApplications.c ****         case CYBLE_EVT_GATT_DISCONNECT_IND:
 117:.\BLEApplications.c **** 			/* Update deviceConnected flag*/
 118:.\BLEApplications.c **** 			deviceConnected = FALSE;
 119:.\BLEApplications.c **** 			
 120:.\BLEApplications.c **** 			/* Reset CapSense notification flag to prevent further notifications
 121:.\BLEApplications.c **** 			 * being sent to Central device after next connection. */
 122:.\BLEApplications.c **** 			sendCapSenseSliderNotifications = FALSE;
 123:.\BLEApplications.c **** 			
 124:.\BLEApplications.c **** 			/* Reset the color coordinates */
 125:.\BLEApplications.c **** 			RGBledData[RED_INDEX] = ZERO;
 126:.\BLEApplications.c ****             RGBledData[GREEN_INDEX] = ZERO;
 127:.\BLEApplications.c ****             RGBledData[BLUE_INDEX] = ZERO;
 128:.\BLEApplications.c ****             RGBledData[INTENSITY_INDEX] = ZERO;
 129:.\BLEApplications.c **** 			UpdateRGBled();
 130:.\BLEApplications.c **** 
 131:.\BLEApplications.c **** 			break;
 132:.\BLEApplications.c ****         
 133:.\BLEApplications.c ****             
 134:.\BLEApplications.c ****         case CYBLE_EVT_GATTS_WRITE_REQ: 							
 135:.\BLEApplications.c ****             /* This event is received when Central device sends a Write command 
 136:.\BLEApplications.c ****              * on an Attribute. 
 137:.\BLEApplications.c ****              * We first get the attribute handle from the event parameter and 
 138:.\BLEApplications.c ****              * then try to match that handle with an attribute in the database.
 139:.\BLEApplications.c ****              */
 140:.\BLEApplications.c ****             wrReqParam = (CYBLE_GATTS_WRITE_REQ_PARAM_T *) eventParam;
 141:.\BLEApplications.c ****             
 142:.\BLEApplications.c **** 
 143:.\BLEApplications.c ****             /* This condition checks whether the RGB LED characteristic was
 144:.\BLEApplications.c ****              * written to by matching the attribute handle.
 145:.\BLEApplications.c ****              * If the attribute handle matches, then the value written to the 
 146:.\BLEApplications.c ****              * attribute is extracted and used to drive RGB LED.
 147:.\BLEApplications.c ****              */
 148:.\BLEApplications.c ****             
 149:.\BLEApplications.c ****             /* Extract the attribute handle for the RGB LED characteristic 
 150:.\BLEApplications.c ****              * from the custom service data structure.
 151:.\BLEApplications.c ****              */
 152:.\BLEApplications.c ****              
 153:.\BLEApplications.c ****             /* if (attributeHandle == RGB LED Characteristic Handle) */
 154:.\BLEApplications.c ****             if(wrReqParam->handleValPair.attrHandle == cyBle_customs[RGB_LED_SERVICE_INDEX].\
 155:.\BLEApplications.c **** 								                        customServiceInfo[RGB_LED_CHAR_INDEX].\
 156:.\BLEApplications.c ****                                                         customServiceCharHandle)
 157:.\BLEApplications.c ****             {
 158:.\BLEApplications.c ****                 /* Extract the value of the attribute from the handle-value 
 159:.\BLEApplications.c ****                  * pair database. */
 160:.\BLEApplications.c ****                 RGBledData[RED_INDEX] = wrReqParam->handleValPair.value.val[RED_INDEX];
 161:.\BLEApplications.c ****                 RGBledData[GREEN_INDEX] = wrReqParam->handleValPair.value.val[GREEN_INDEX];
 162:.\BLEApplications.c ****                 RGBledData[BLUE_INDEX] = wrReqParam->handleValPair.value.val[BLUE_INDEX];
 163:.\BLEApplications.c ****                 RGBledData[INTENSITY_INDEX] = wrReqParam->handleValPair.value.val[INTENSITY_INDEX];
 164:.\BLEApplications.c ****                 
 165:.\BLEApplications.c ****                 /* Update the PrISM components and the attribute for RGB LED read 
 166:.\BLEApplications.c ****                  * characteristics */
 167:.\BLEApplications.c ****                 UpdateRGBled();
 168:.\BLEApplications.c ****             }
 169:.\BLEApplications.c **** 
ARM GAS  C:\Users\sunyi\AppData\Local\Temp\ccjimDxZ.s 			page 5


 170:.\BLEApplications.c ****             
 171:.\BLEApplications.c ****             /* This condition checks whether the CCCD descriptor for CapSense
 172:.\BLEApplications.c ****              * slider characteristic has been written to. This tells us whether
 173:.\BLEApplications.c ****              * the notification for CapSense slider has been enabled/disabled.
 174:.\BLEApplications.c ****              */
 175:.\BLEApplications.c ****             
 176:.\BLEApplications.c ****             /* if (attributeHandle == CapSense Slider Characteristics Handle) */
 177:.\BLEApplications.c ****             if(wrReqParam->handleValPair.attrHandle == cyBle_customs[CAPSENSE_SERVICE_INDEX].
 178:.\BLEApplications.c **** 			            customServiceInfo[CAPSENSE_SLIDER_CHAR_INDEX].
 179:.\BLEApplications.c ****                         customServiceCharDescriptors[CAPSENSE_SLIDER_CCC_INDEX])
 180:.\BLEApplications.c ****             {
 181:.\BLEApplications.c ****                 sendCapSenseSliderNotifications = wrReqParam->handleValPair.value.val[CCC_DATA_INDE
 182:.\BLEApplications.c **** 				
 183:.\BLEApplications.c ****                 /* When the Client Characteristic Configuration descriptor (CCCD) is
 184:.\BLEApplications.c ****                 * written by the Central device for enabling/disabling notifications, 
 185:.\BLEApplications.c ****                 * then the same descriptor value has to be explicitly updated in 
 186:.\BLEApplications.c ****                 * application so that it reflects the correct value when the 
 187:.\BLEApplications.c ****                 * descriptor is read. 
 188:.\BLEApplications.c ****                 */
 189:.\BLEApplications.c ****                 {
 190:.\BLEApplications.c ****                     /* Write the present CapSense notification status to the local variable */
 191:.\BLEApplications.c ****             		CapSenseCCCDvalue[0] = sendCapSenseSliderNotifications;
 192:.\BLEApplications.c ****             		CapSenseCCCDvalue[1] = 0x00;
 193:.\BLEApplications.c ****             		
 194:.\BLEApplications.c ****             		/* Update CCCD handle with notification status data*/
 195:.\BLEApplications.c ****             		CapSenseNotificationCCCDhandle.attrHandle = CAPSENSE_CCC_HANDLE;
 196:.\BLEApplications.c ****             		CapSenseNotificationCCCDhandle.value.val = CapSenseCCCDvalue;
 197:.\BLEApplications.c ****             		CapSenseNotificationCCCDhandle.value.len = sizeof(CapSenseCCCDvalue);
 198:.\BLEApplications.c ****             		
 199:.\BLEApplications.c ****             		/* Report data to BLE component for sending data when read by Central device */
 200:.\BLEApplications.c ****             		CyBle_GattsWriteAttributeValue(&CapSenseNotificationCCCDhandle, ZERO, &cyBle_connHand
 201:.\BLEApplications.c ****                                                                                 CYBLE_GATT_DB_LOCAL
 202:.\BLEApplications.c ****                 }
 203:.\BLEApplications.c ****            }
 204:.\BLEApplications.c **** 
 205:.\BLEApplications.c **** 			
 206:.\BLEApplications.c **** 			/* Send the response to the write request received. */
 207:.\BLEApplications.c **** 			CyBle_GattsWriteRsp(cyBle_connHandle);
 208:.\BLEApplications.c **** 			
 209:.\BLEApplications.c **** 			break;
 210:.\BLEApplications.c **** 
 211:.\BLEApplications.c ****         default:
 212:.\BLEApplications.c **** 
 213:.\BLEApplications.c ****        	 	break;
  60              		.loc 1 213 0
  61 001a 83E0     		b	.L1
  62              	.L4:
  94:.\BLEApplications.c ****     {
  63              		.loc 1 94 0
  64 001c 422B     		cmp	r3, #66
  65 001e 15D0     		beq	.L6
  66 0020 4C2B     		cmp	r3, #76
  67 0022 28D0     		beq	.L7
  68 0024 412B     		cmp	r3, #65
  69 0026 0DD0     		beq	.L8
  70              		.loc 1 213 0
  71 0028 7CE0     		b	.L1
ARM GAS  C:\Users\sunyi\AppData\Local\Temp\ccjimDxZ.s 			page 6


  72              	.L3:
  99:.\BLEApplications.c **** 			break;
  73              		.loc 1 99 0
  74 002a 0020     		mov	r0, #0
  75 002c FFF7FEFF 		bl	CyBle_GappStartAdvertisement
 100:.\BLEApplications.c **** 			
  76              		.loc 1 100 0
  77 0030 78E0     		b	.L1
  78              	.L5:
 104:.\BLEApplications.c ****             {
  79              		.loc 1 104 0
  80 0032 3E4B     		ldr	r3, .L13
  81 0034 1B78     		ldrb	r3, [r3]
  82 0036 042B     		cmp	r3, #4
  83 0038 03D1     		bne	.L10
 107:.\BLEApplications.c ****             }
  84              		.loc 1 107 0
  85 003a 0020     		mov	r0, #0
  86 003c FFF7FEFF 		bl	CyBle_GappStartAdvertisement
 109:.\BLEApplications.c **** 			
  87              		.loc 1 109 0
  88 0040 70E0     		b	.L1
  89              	.L10:
  90 0042 6FE0     		b	.L1
  91              	.L8:
 113:.\BLEApplications.c **** 			break;
  92              		.loc 1 113 0
  93 0044 3A4B     		ldr	r3, .L13+4
  94 0046 0122     		mov	r2, #1
  95 0048 1A70     		strb	r2, [r3]
 114:.\BLEApplications.c ****         
  96              		.loc 1 114 0
  97 004a 6BE0     		b	.L1
  98              	.L6:
 118:.\BLEApplications.c **** 			
  99              		.loc 1 118 0
 100 004c 384B     		ldr	r3, .L13+4
 101 004e 0022     		mov	r2, #0
 102 0050 1A70     		strb	r2, [r3]
 122:.\BLEApplications.c **** 			
 103              		.loc 1 122 0
 104 0052 384B     		ldr	r3, .L13+8
 105 0054 0022     		mov	r2, #0
 106 0056 1A70     		strb	r2, [r3]
 125:.\BLEApplications.c ****             RGBledData[GREEN_INDEX] = ZERO;
 107              		.loc 1 125 0
 108 0058 374B     		ldr	r3, .L13+12
 109 005a 0022     		mov	r2, #0
 110 005c 1A70     		strb	r2, [r3]
 126:.\BLEApplications.c ****             RGBledData[BLUE_INDEX] = ZERO;
 111              		.loc 1 126 0
 112 005e 364B     		ldr	r3, .L13+12
 113 0060 0022     		mov	r2, #0
 114 0062 5A70     		strb	r2, [r3, #1]
 127:.\BLEApplications.c ****             RGBledData[INTENSITY_INDEX] = ZERO;
 115              		.loc 1 127 0
 116 0064 344B     		ldr	r3, .L13+12
ARM GAS  C:\Users\sunyi\AppData\Local\Temp\ccjimDxZ.s 			page 7


 117 0066 0022     		mov	r2, #0
 118 0068 9A70     		strb	r2, [r3, #2]
 128:.\BLEApplications.c **** 			UpdateRGBled();
 119              		.loc 1 128 0
 120 006a 334B     		ldr	r3, .L13+12
 121 006c 0022     		mov	r2, #0
 122 006e DA70     		strb	r2, [r3, #3]
 129:.\BLEApplications.c **** 
 123              		.loc 1 129 0
 124 0070 FFF7FEFF 		bl	UpdateRGBled
 131:.\BLEApplications.c ****         
 125              		.loc 1 131 0
 126 0074 56E0     		b	.L1
 127              	.L7:
 140:.\BLEApplications.c ****             
 128              		.loc 1 140 0
 129 0076 3B68     		ldr	r3, [r7]
 130 0078 FB61     		str	r3, [r7, #28]
 154:.\BLEApplications.c **** 								                        customServiceInfo[RGB_LED_CHAR_INDEX].\
 131              		.loc 1 154 0
 132 007a FB69     		ldr	r3, [r7, #28]
 133 007c 9A89     		ldrh	r2, [r3, #12]
 155:.\BLEApplications.c ****                                                         customServiceCharHandle)
 134              		.loc 1 155 0
 135 007e 2F4B     		ldr	r3, .L13+16
 136 0080 5B89     		ldrh	r3, [r3, #10]
 154:.\BLEApplications.c **** 								                        customServiceInfo[RGB_LED_CHAR_INDEX].\
 137              		.loc 1 154 0
 138 0082 9A42     		cmp	r2, r3
 139 0084 15D1     		bne	.L11
 160:.\BLEApplications.c ****                 RGBledData[GREEN_INDEX] = wrReqParam->handleValPair.value.val[GREEN_INDEX];
 140              		.loc 1 160 0
 141 0086 FB69     		ldr	r3, [r7, #28]
 142 0088 5B68     		ldr	r3, [r3, #4]
 143 008a 1A78     		ldrb	r2, [r3]
 144 008c 2A4B     		ldr	r3, .L13+12
 145 008e 1A70     		strb	r2, [r3]
 161:.\BLEApplications.c ****                 RGBledData[BLUE_INDEX] = wrReqParam->handleValPair.value.val[BLUE_INDEX];
 146              		.loc 1 161 0
 147 0090 FB69     		ldr	r3, [r7, #28]
 148 0092 5B68     		ldr	r3, [r3, #4]
 149 0094 5A78     		ldrb	r2, [r3, #1]
 150 0096 284B     		ldr	r3, .L13+12
 151 0098 5A70     		strb	r2, [r3, #1]
 162:.\BLEApplications.c ****                 RGBledData[INTENSITY_INDEX] = wrReqParam->handleValPair.value.val[INTENSITY_INDEX];
 152              		.loc 1 162 0
 153 009a FB69     		ldr	r3, [r7, #28]
 154 009c 5B68     		ldr	r3, [r3, #4]
 155 009e 9A78     		ldrb	r2, [r3, #2]
 156 00a0 254B     		ldr	r3, .L13+12
 157 00a2 9A70     		strb	r2, [r3, #2]
 163:.\BLEApplications.c ****                 
 158              		.loc 1 163 0
 159 00a4 FB69     		ldr	r3, [r7, #28]
 160 00a6 5B68     		ldr	r3, [r3, #4]
 161 00a8 DA78     		ldrb	r2, [r3, #3]
 162 00aa 234B     		ldr	r3, .L13+12
ARM GAS  C:\Users\sunyi\AppData\Local\Temp\ccjimDxZ.s 			page 8


 163 00ac DA70     		strb	r2, [r3, #3]
 167:.\BLEApplications.c ****             }
 164              		.loc 1 167 0
 165 00ae FFF7FEFF 		bl	UpdateRGBled
 166              	.L11:
 177:.\BLEApplications.c **** 			            customServiceInfo[CAPSENSE_SLIDER_CHAR_INDEX].
 167              		.loc 1 177 0
 168 00b2 FB69     		ldr	r3, [r7, #28]
 169 00b4 9A89     		ldrh	r2, [r3, #12]
 179:.\BLEApplications.c ****             {
 170              		.loc 1 179 0
 171 00b6 214B     		ldr	r3, .L13+16
 172 00b8 9B88     		ldrh	r3, [r3, #4]
 177:.\BLEApplications.c **** 			            customServiceInfo[CAPSENSE_SLIDER_CHAR_INDEX].
 173              		.loc 1 177 0
 174 00ba 9A42     		cmp	r2, r3
 175 00bc 23D1     		bne	.L12
 181:.\BLEApplications.c **** 				
 176              		.loc 1 181 0
 177 00be FB69     		ldr	r3, [r7, #28]
 178 00c0 5B68     		ldr	r3, [r3, #4]
 179 00c2 1A78     		ldrb	r2, [r3]
 180 00c4 1B4B     		ldr	r3, .L13+8
 181 00c6 1A70     		strb	r2, [r3]
 191:.\BLEApplications.c ****             		CapSenseCCCDvalue[1] = 0x00;
 182              		.loc 1 191 0
 183 00c8 1A4B     		ldr	r3, .L13+8
 184 00ca 1A78     		ldrb	r2, [r3]
 185 00cc 1823     		mov	r3, #24
 186 00ce FB18     		add	r3, r7, r3
 187 00d0 1A70     		strb	r2, [r3]
 192:.\BLEApplications.c ****             		
 188              		.loc 1 192 0
 189 00d2 1823     		mov	r3, #24
 190 00d4 FB18     		add	r3, r7, r3
 191 00d6 0022     		mov	r2, #0
 192 00d8 5A70     		strb	r2, [r3, #1]
 195:.\BLEApplications.c ****             		CapSenseNotificationCCCDhandle.value.val = CapSenseCCCDvalue;
 193              		.loc 1 195 0
 194 00da 0C23     		mov	r3, #12
 195 00dc FB18     		add	r3, r7, r3
 196 00de 0F22     		mov	r2, #15
 197 00e0 1A81     		strh	r2, [r3, #8]
 196:.\BLEApplications.c ****             		CapSenseNotificationCCCDhandle.value.len = sizeof(CapSenseCCCDvalue);
 198              		.loc 1 196 0
 199 00e2 0C23     		mov	r3, #12
 200 00e4 FB18     		add	r3, r7, r3
 201 00e6 1822     		mov	r2, #24
 202 00e8 BA18     		add	r2, r7, r2
 203 00ea 1A60     		str	r2, [r3]
 197:.\BLEApplications.c ****             		
 204              		.loc 1 197 0
 205 00ec 0C23     		mov	r3, #12
 206 00ee FB18     		add	r3, r7, r3
 207 00f0 0222     		mov	r2, #2
 208 00f2 9A80     		strh	r2, [r3, #4]
 200:.\BLEApplications.c ****                                                                                 CYBLE_GATT_DB_LOCAL
ARM GAS  C:\Users\sunyi\AppData\Local\Temp\ccjimDxZ.s 			page 9


 209              		.loc 1 200 0
 210 00f4 0C23     		mov	r3, #12
 211 00f6 FA18     		add	r2, r7, r3
 212 00f8 114B     		ldr	r3, .L13+20
 213 00fa 101C     		mov	r0, r2
 214 00fc 0021     		mov	r1, #0
 215 00fe 1A1C     		mov	r2, r3
 216 0100 0023     		mov	r3, #0
 217 0102 FFF7FEFF 		bl	CyBle_GattsWriteAttributeValue
 218              	.L12:
 207:.\BLEApplications.c **** 			
 219              		.loc 1 207 0
 220 0106 0E4B     		ldr	r3, .L13+20
 221 0108 1A78     		ldrb	r2, [r3]
 222 010a 5B78     		ldrb	r3, [r3, #1]
 223 010c 1B02     		lsl	r3, r3, #8
 224 010e 1A43     		orr	r2, r3
 225 0110 0023     		mov	r3, #0
 226 0112 1204     		lsl	r2, r2, #16
 227 0114 120C     		lsr	r2, r2, #16
 228 0116 1B0C     		lsr	r3, r3, #16
 229 0118 1B04     		lsl	r3, r3, #16
 230 011a 1343     		orr	r3, r2
 231 011c 181C     		mov	r0, r3
 232 011e FFF7FEFF 		bl	CyBle_GattsWriteRsp
 209:.\BLEApplications.c **** 
 233              		.loc 1 209 0
 234 0122 C046     		mov	r8, r8
 235              	.L1:
 214:.\BLEApplications.c ****     }
 215:.\BLEApplications.c **** }
 236              		.loc 1 215 0
 237 0124 BD46     		mov	sp, r7
 238 0126 08B0     		add	sp, sp, #32
 239              		@ sp needed
 240 0128 80BD     		pop	{r7, pc}
 241              	.L14:
 242 012a C046     		.align	2
 243              	.L13:
 244 012c 00000000 		.word	cyBle_state
 245 0130 00000000 		.word	deviceConnected
 246 0134 00000000 		.word	sendCapSenseSliderNotifications
 247 0138 00000000 		.word	RGBledData
 248 013c 00000000 		.word	cyBle_customs
 249 0140 00000000 		.word	cyBle_connHandle
 250              		.cfi_endproc
 251              	.LFE35:
 252              		.size	CustomEventHandler, .-CustomEventHandler
 253              		.section	.text.SendCapSenseNotification,"ax",%progbits
 254              		.align	2
 255              		.global	SendCapSenseNotification
 256              		.code	16
 257              		.thumb_func
 258              		.type	SendCapSenseNotification, %function
 259              	SendCapSenseNotification:
 260              	.LFB36:
 216:.\BLEApplications.c **** 
ARM GAS  C:\Users\sunyi\AppData\Local\Temp\ccjimDxZ.s 			page 10


 217:.\BLEApplications.c **** 
 218:.\BLEApplications.c **** /*******************************************************************************
 219:.\BLEApplications.c **** * Function Name: SendCapSenseNotification
 220:.\BLEApplications.c **** ********************************************************************************
 221:.\BLEApplications.c **** * Summary:
 222:.\BLEApplications.c **** * Send CapSense Slider data as BLE Notifications. This function updates
 223:.\BLEApplications.c **** * the notification handle with data and triggers the BLE component to send 
 224:.\BLEApplications.c **** * notification
 225:.\BLEApplications.c **** *
 226:.\BLEApplications.c **** * Parameters:
 227:.\BLEApplications.c **** *  CapSenseSliderData:	CapSense slider value	
 228:.\BLEApplications.c **** *
 229:.\BLEApplications.c **** * Return:
 230:.\BLEApplications.c **** *  void
 231:.\BLEApplications.c **** *
 232:.\BLEApplications.c **** *******************************************************************************/
 233:.\BLEApplications.c **** void SendCapSenseNotification(uint8 CapSenseSliderData)
 234:.\BLEApplications.c **** {
 261              		.loc 1 234 0
 262              		.cfi_startproc
 263 0000 80B5     		push	{r7, lr}
 264              		.cfi_def_cfa_offset 8
 265              		.cfi_offset 7, -8
 266              		.cfi_offset 14, -4
 267 0002 86B0     		sub	sp, sp, #24
 268              		.cfi_def_cfa_offset 32
 269 0004 00AF     		add	r7, sp, #0
 270              		.cfi_def_cfa_register 7
 271 0006 021C     		mov	r2, r0
 272 0008 FB1D     		add	r3, r7, #7
 273 000a 1A70     		strb	r2, [r3]
 235:.\BLEApplications.c **** 	/* 'CapSensenotificationHandle' stores CapSense notification data parameters */
 236:.\BLEApplications.c **** 	CYBLE_GATTS_HANDLE_VALUE_NTF_T		CapSensenotificationHandle;	
 237:.\BLEApplications.c **** 	
 238:.\BLEApplications.c **** 	/* Update notification handle with CapSense slider data*/
 239:.\BLEApplications.c **** 	CapSensenotificationHandle.attrHandle = CYBLE_CAPSENSE_SERVICE_CAPSENSE_SLIDER_CHARACTERISTIC_CHAR
 274              		.loc 1 239 0
 275 000c 0C23     		mov	r3, #12
 276 000e FB18     		add	r3, r7, r3
 277 0010 0E22     		mov	r2, #14
 278 0012 1A81     		strh	r2, [r3, #8]
 240:.\BLEApplications.c **** 	CapSensenotificationHandle.value.val = &CapSenseSliderData;
 279              		.loc 1 240 0
 280 0014 0C23     		mov	r3, #12
 281 0016 FB18     		add	r3, r7, r3
 282 0018 FA1D     		add	r2, r7, #7
 283 001a 1A60     		str	r2, [r3]
 241:.\BLEApplications.c **** 	CapSensenotificationHandle.value.len = sizeof(CapSenseSliderData);
 284              		.loc 1 241 0
 285 001c 0C23     		mov	r3, #12
 286 001e FB18     		add	r3, r7, r3
 287 0020 0122     		mov	r2, #1
 288 0022 9A80     		strh	r2, [r3, #4]
 242:.\BLEApplications.c **** 	
 243:.\BLEApplications.c **** 	/* Send notifications. */
 244:.\BLEApplications.c **** 	CyBle_GattsNotification(cyBle_connHandle, &CapSensenotificationHandle);
 289              		.loc 1 244 0
ARM GAS  C:\Users\sunyi\AppData\Local\Temp\ccjimDxZ.s 			page 11


 290 0024 094B     		ldr	r3, .L16
 291 0026 0C22     		mov	r2, #12
 292 0028 B918     		add	r1, r7, r2
 293 002a 1A78     		ldrb	r2, [r3]
 294 002c 5B78     		ldrb	r3, [r3, #1]
 295 002e 1B02     		lsl	r3, r3, #8
 296 0030 1A43     		orr	r2, r3
 297 0032 0023     		mov	r3, #0
 298 0034 1204     		lsl	r2, r2, #16
 299 0036 120C     		lsr	r2, r2, #16
 300 0038 1B0C     		lsr	r3, r3, #16
 301 003a 1B04     		lsl	r3, r3, #16
 302 003c 1343     		orr	r3, r2
 303 003e 181C     		mov	r0, r3
 304 0040 FFF7FEFF 		bl	CyBle_GattsNotification
 245:.\BLEApplications.c **** }
 305              		.loc 1 245 0
 306 0044 BD46     		mov	sp, r7
 307 0046 06B0     		add	sp, sp, #24
 308              		@ sp needed
 309 0048 80BD     		pop	{r7, pc}
 310              	.L17:
 311 004a C046     		.align	2
 312              	.L16:
 313 004c 00000000 		.word	cyBle_connHandle
 314              		.cfi_endproc
 315              	.LFE36:
 316              		.size	SendCapSenseNotification, .-SendCapSenseNotification
 317              		.global	__aeabi_idiv
 318              		.section	.text.UpdateRGBled,"ax",%progbits
 319              		.align	2
 320              		.global	UpdateRGBled
 321              		.code	16
 322              		.thumb_func
 323              		.type	UpdateRGBled, %function
 324              	UpdateRGBled:
 325              	.LFB37:
 246:.\BLEApplications.c **** 
 247:.\BLEApplications.c **** 
 248:.\BLEApplications.c **** /*******************************************************************************
 249:.\BLEApplications.c **** * Function Name: UpdateRGBled
 250:.\BLEApplications.c **** ********************************************************************************
 251:.\BLEApplications.c **** * Summary:
 252:.\BLEApplications.c **** * Receive the new RGB data and modify PrISM parameters. Also, update the
 253:.\BLEApplications.c **** * read characteristic handle so that the next read from the BLE central device
 254:.\BLEApplications.c **** * gives present RGB color and intensity data.
 255:.\BLEApplications.c **** *
 256:.\BLEApplications.c **** * Parameters:
 257:.\BLEApplications.c **** *  void
 258:.\BLEApplications.c **** *
 259:.\BLEApplications.c **** * Return:
 260:.\BLEApplications.c **** *  void
 261:.\BLEApplications.c **** *
 262:.\BLEApplications.c **** *******************************************************************************/
 263:.\BLEApplications.c **** void UpdateRGBled(void)
 264:.\BLEApplications.c **** {
 326              		.loc 1 264 0
ARM GAS  C:\Users\sunyi\AppData\Local\Temp\ccjimDxZ.s 			page 12


 327              		.cfi_startproc
 328 0000 80B5     		push	{r7, lr}
 329              		.cfi_def_cfa_offset 8
 330              		.cfi_offset 7, -8
 331              		.cfi_offset 14, -4
 332 0002 82B0     		sub	sp, sp, #8
 333              		.cfi_def_cfa_offset 16
 334 0004 00AF     		add	r7, sp, #0
 335              		.cfi_def_cfa_register 7
 265:.\BLEApplications.c **** 	/* Local variables to calculate the color components from RGB received data*/
 266:.\BLEApplications.c **** 	uint8 debug_red;
 267:.\BLEApplications.c **** 	uint8 debug_green;
 268:.\BLEApplications.c **** 	uint8 debug_blue;
 269:.\BLEApplications.c **** 	uint8 intensity_divide_value = RGBledData[INTENSITY_INDEX];
 336              		.loc 1 269 0
 337 0006 FB1D     		add	r3, r7, #7
 338 0008 2C4A     		ldr	r2, .L19
 339 000a D278     		ldrb	r2, [r2, #3]
 340 000c 1A70     		strb	r2, [r3]
 270:.\BLEApplications.c **** 	
 271:.\BLEApplications.c **** 	debug_red = (uint8)(((uint16)RGBledData[RED_INDEX] * intensity_divide_value) / 255);
 341              		.loc 1 271 0
 342 000e 2B4B     		ldr	r3, .L19
 343 0010 1B78     		ldrb	r3, [r3]
 344 0012 1A1C     		mov	r2, r3
 345 0014 FB1D     		add	r3, r7, #7
 346 0016 1B78     		ldrb	r3, [r3]
 347 0018 5343     		mul	r3, r2
 348 001a 181C     		mov	r0, r3
 349 001c FF21     		mov	r1, #255
 350 001e FFF7FEFF 		bl	__aeabi_idiv
 351 0022 031C     		mov	r3, r0
 352 0024 1A1C     		mov	r2, r3
 353 0026 BB1D     		add	r3, r7, #6
 354 0028 1A70     		strb	r2, [r3]
 272:.\BLEApplications.c **** 	debug_green = (uint8)(((uint16)RGBledData[GREEN_INDEX] * intensity_divide_value) / 255);
 355              		.loc 1 272 0
 356 002a 244B     		ldr	r3, .L19
 357 002c 5B78     		ldrb	r3, [r3, #1]
 358 002e 1A1C     		mov	r2, r3
 359 0030 FB1D     		add	r3, r7, #7
 360 0032 1B78     		ldrb	r3, [r3]
 361 0034 5343     		mul	r3, r2
 362 0036 181C     		mov	r0, r3
 363 0038 FF21     		mov	r1, #255
 364 003a FFF7FEFF 		bl	__aeabi_idiv
 365 003e 031C     		mov	r3, r0
 366 0040 1A1C     		mov	r2, r3
 367 0042 7B1D     		add	r3, r7, #5
 368 0044 1A70     		strb	r2, [r3]
 273:.\BLEApplications.c **** 	debug_blue = (uint8)(((uint16)RGBledData[BLUE_INDEX] * intensity_divide_value) / 255);
 369              		.loc 1 273 0
 370 0046 1D4B     		ldr	r3, .L19
 371 0048 9B78     		ldrb	r3, [r3, #2]
 372 004a 1A1C     		mov	r2, r3
 373 004c FB1D     		add	r3, r7, #7
 374 004e 1B78     		ldrb	r3, [r3]
ARM GAS  C:\Users\sunyi\AppData\Local\Temp\ccjimDxZ.s 			page 13


 375 0050 5343     		mul	r3, r2
 376 0052 181C     		mov	r0, r3
 377 0054 FF21     		mov	r1, #255
 378 0056 FFF7FEFF 		bl	__aeabi_idiv
 379 005a 031C     		mov	r3, r0
 380 005c 1A1C     		mov	r2, r3
 381 005e 3B1D     		add	r3, r7, #4
 382 0060 1A70     		strb	r2, [r3]
 274:.\BLEApplications.c **** 	
 275:.\BLEApplications.c **** 	/* Update the density value of the PrISM module for color control*/
 276:.\BLEApplications.c **** 	PRS_1_WritePulse0(RGB_LED_MAX_VAL - debug_red);
 383              		.loc 1 276 0
 384 0062 BB1D     		add	r3, r7, #6
 385 0064 1B78     		ldrb	r3, [r3]
 386 0066 DB43     		mvn	r3, r3
 387 0068 DBB2     		uxtb	r3, r3
 388 006a 181C     		mov	r0, r3
 389 006c FFF7FEFF 		bl	PRS_1_WritePulse0
 277:.\BLEApplications.c ****     PRS_1_WritePulse1(RGB_LED_MAX_VAL - debug_green);
 390              		.loc 1 277 0
 391 0070 7B1D     		add	r3, r7, #5
 392 0072 1B78     		ldrb	r3, [r3]
 393 0074 DB43     		mvn	r3, r3
 394 0076 DBB2     		uxtb	r3, r3
 395 0078 181C     		mov	r0, r3
 396 007a FFF7FEFF 		bl	PRS_1_WritePulse1
 278:.\BLEApplications.c ****     PRS_2_WritePulse0(RGB_LED_MAX_VAL - debug_blue);
 397              		.loc 1 278 0
 398 007e 3B1D     		add	r3, r7, #4
 399 0080 1B78     		ldrb	r3, [r3]
 400 0082 DB43     		mvn	r3, r3
 401 0084 DBB2     		uxtb	r3, r3
 402 0086 181C     		mov	r0, r3
 403 0088 FFF7FEFF 		bl	PRS_2_WritePulse0
 279:.\BLEApplications.c **** 	
 280:.\BLEApplications.c **** 	/* Update RGB control handle with new values */
 281:.\BLEApplications.c **** 	rgbHandle.attrHandle = RGB_LED_CHAR_HANDLE;
 404              		.loc 1 281 0
 405 008c 0C4B     		ldr	r3, .L19+4
 406 008e 1322     		mov	r2, #19
 407 0090 1A81     		strh	r2, [r3, #8]
 282:.\BLEApplications.c **** 	rgbHandle.value.val = RGBledData;
 408              		.loc 1 282 0
 409 0092 0B4B     		ldr	r3, .L19+4
 410 0094 094A     		ldr	r2, .L19
 411 0096 1A60     		str	r2, [r3]
 283:.\BLEApplications.c **** 	rgbHandle.value.len = sizeof(RGBledData);
 412              		.loc 1 283 0
 413 0098 094B     		ldr	r3, .L19+4
 414 009a 0422     		mov	r2, #4
 415 009c 9A80     		strh	r2, [r3, #4]
 284:.\BLEApplications.c **** 	rgbHandle.value.actualLen = sizeof(RGBledData);
 416              		.loc 1 284 0
 417 009e 084B     		ldr	r3, .L19+4
 418 00a0 0422     		mov	r2, #4
 419 00a2 DA80     		strh	r2, [r3, #6]
 285:.\BLEApplications.c **** 	
ARM GAS  C:\Users\sunyi\AppData\Local\Temp\ccjimDxZ.s 			page 14


 286:.\BLEApplications.c **** 	/* Send updated RGB control handle as attribute for read by central device */
 287:.\BLEApplications.c **** 	CyBle_GattsWriteAttributeValue(&rgbHandle, FALSE, &cyBle_connHandle, FALSE);  
 420              		.loc 1 287 0
 421 00a4 064A     		ldr	r2, .L19+4
 422 00a6 074B     		ldr	r3, .L19+8
 423 00a8 101C     		mov	r0, r2
 424 00aa 0021     		mov	r1, #0
 425 00ac 1A1C     		mov	r2, r3
 426 00ae 0023     		mov	r3, #0
 427 00b0 FFF7FEFF 		bl	CyBle_GattsWriteAttributeValue
 288:.\BLEApplications.c **** }
 428              		.loc 1 288 0
 429 00b4 BD46     		mov	sp, r7
 430 00b6 02B0     		add	sp, sp, #8
 431              		@ sp needed
 432 00b8 80BD     		pop	{r7, pc}
 433              	.L20:
 434 00ba C046     		.align	2
 435              	.L19:
 436 00bc 00000000 		.word	RGBledData
 437 00c0 00000000 		.word	rgbHandle
 438 00c4 00000000 		.word	cyBle_connHandle
 439              		.cfi_endproc
 440              	.LFE37:
 441              		.size	UpdateRGBled, .-UpdateRGBled
 442              		.text
 443              	.Letext0:
 444              		.file 2 "Generated_Source\\PSoC4/cytypes.h"
 445              		.file 3 "Generated_Source\\PSoC4/BLE_1_StackGatt.h"
 446              		.file 4 "Generated_Source\\PSoC4/BLE_1_StackGattServer.h"
 447              		.file 5 "Generated_Source\\PSoC4/BLE_1_custom.h"
 448              		.file 6 "Generated_Source\\PSoC4/BLE_1_Stack.h"
 449              		.file 7 "Generated_Source\\PSoC4/BLE_1_eventHandler.h"