ARM GAS  C:\Users\sunyi\AppData\Local\Temp\ccDxWxH0.s 			page 1


   1              		.cpu cortex-m0
   2              		.fpu softvfp
   3              		.eabi_attribute 20, 1
   4              		.eabi_attribute 21, 1
   5              		.eabi_attribute 23, 3
   6              		.eabi_attribute 24, 1
   7              		.eabi_attribute 25, 1
   8              		.eabi_attribute 26, 1
   9              		.eabi_attribute 30, 6
  10              		.eabi_attribute 34, 0
  11              		.eabi_attribute 18, 4
  12              		.code	16
  13              		.file	"CapSense_CSHL.c"
  14              		.text
  15              	.Ltext0:
  16              		.cfi_sections	.debug_frame
  17              		.comm	CapSense_rawFilterData1,10,4
  18              		.global	CapSense_sensorBaseline
  19              		.bss
  20              		.align	2
  21              		.type	CapSense_sensorBaseline, %object
  22              		.size	CapSense_sensorBaseline, 10
  23              	CapSense_sensorBaseline:
  24 0000 00000000 		.space	10
  24      00000000 
  24      0000
  25              		.global	CapSense_sensorBaselineLow
  26 000a 0000     		.align	2
  27              		.type	CapSense_sensorBaselineLow, %object
  28              		.size	CapSense_sensorBaselineLow, 5
  29              	CapSense_sensorBaselineLow:
  30 000c 00000000 		.space	5
  30      00
  31              		.global	CapSense_sensorSignal
  32 0011 000000   		.align	2
  33              		.type	CapSense_sensorSignal, %object
  34              		.size	CapSense_sensorSignal, 5
  35              	CapSense_sensorSignal:
  36 0014 00000000 		.space	5
  36      00
  37              		.global	CapSense_sensorOnMask
  38 0019 000000   		.align	2
  39              		.type	CapSense_sensorOnMask, %object
  40              		.size	CapSense_sensorOnMask, 1
  41              	CapSense_sensorOnMask:
  42 001c 00       		.space	1
  43              		.comm	CapSense_lowBaselineResetCnt,5,4
  44              		.global	CapSense_lowBaselineReset
  45              		.data
  46              		.align	2
  47              		.type	CapSense_lowBaselineReset, %object
  48              		.size	CapSense_lowBaselineReset, 5
  49              	CapSense_lowBaselineReset:
  50 0000 1E       		.byte	30
  51 0001 1E       		.byte	30
  52 0002 1E       		.byte	30
  53 0003 1E       		.byte	30
ARM GAS  C:\Users\sunyi\AppData\Local\Temp\ccDxWxH0.s 			page 2


  54 0004 1E       		.byte	30
  55              		.global	CapSense_enableRawFilters
  56              		.type	CapSense_enableRawFilters, %object
  57              		.size	CapSense_enableRawFilters, 1
  58              	CapSense_enableRawFilters:
  59 0005 01       		.byte	1
  60              		.comm	CapSense_fingerThreshold,1,4
  61              		.comm	CapSense_noiseThreshold,1,4
  62              		.comm	CapSense_negativeNoiseThreshold,1,4
  63              		.comm	CapSense_hysteresis,1,4
  64              		.global	CapSense_debounce
  65 0006 0000     		.align	2
  66              		.type	CapSense_debounce, %object
  67              		.size	CapSense_debounce, 1
  68              	CapSense_debounce:
  69 0008 01       		.byte	1
  70              		.global	CapSense_rawDataIndex
  71              		.section	.rodata
  72              		.align	2
  73              		.type	CapSense_rawDataIndex, %object
  74              		.size	CapSense_rawDataIndex, 1
  75              	CapSense_rawDataIndex:
  76 0000 00       		.space	1
  77              		.global	CapSense_numberOfSensors
  78 0001 000000   		.align	2
  79              		.type	CapSense_numberOfSensors, %object
  80              		.size	CapSense_numberOfSensors, 1
  81              	CapSense_numberOfSensors:
  82 0004 05       		.byte	5
  83 0005 000000   		.align	2
  84              		.type	CapSense_centroidMult, %object
  85              		.size	CapSense_centroidMult, 2
  86              	CapSense_centroidMult:
  87 0008 0019     		.short	6400
  88 000a 0000     		.data
  89 0009 000000   		.align	2
  90              		.type	CapSense_posFiltersMask, %object
  91              		.size	CapSense_posFiltersMask, 1
  92              	CapSense_posFiltersMask:
  93 000c 02       		.byte	2
  94 000d 000000   		.align	2
  95              		.type	CapSense_posFiltersData, %object
  96              		.size	CapSense_posFiltersData, 4
  97              	CapSense_posFiltersData:
  98 0010 01       		.byte	1
  99 0011 00       		.byte	0
 100 0012 00       		.byte	0
 101 0013 00       		.byte	0
 102              		.section	.text.CapSense_BaseInit,"ax",%progbits
 103              		.align	2
 104              		.global	CapSense_BaseInit
 105              		.code	16
 106              		.thumb_func
 107              		.type	CapSense_BaseInit, %function
 108              	CapSense_BaseInit:
 109              	.LFB35:
 110              		.file 1 ".\\Generated_Source\\PSoC4\\CapSense_CSHL.c"
ARM GAS  C:\Users\sunyi\AppData\Local\Temp\ccDxWxH0.s 			page 3


   1:.\Generated_Source\PSoC4/CapSense_CSHL.c **** /*******************************************************************************
   2:.\Generated_Source\PSoC4/CapSense_CSHL.c **** * File Name: CapSense_CSHL.c
   3:.\Generated_Source\PSoC4/CapSense_CSHL.c **** * Version 2.20
   4:.\Generated_Source\PSoC4/CapSense_CSHL.c **** *
   5:.\Generated_Source\PSoC4/CapSense_CSHL.c **** * Description:
   6:.\Generated_Source\PSoC4/CapSense_CSHL.c **** *  This file provides the source code to the High Level APIs for the CapSesne
   7:.\Generated_Source\PSoC4/CapSense_CSHL.c **** *  CSD component.
   8:.\Generated_Source\PSoC4/CapSense_CSHL.c **** *
   9:.\Generated_Source\PSoC4/CapSense_CSHL.c **** * Note:
  10:.\Generated_Source\PSoC4/CapSense_CSHL.c **** *
  11:.\Generated_Source\PSoC4/CapSense_CSHL.c **** ********************************************************************************
  12:.\Generated_Source\PSoC4/CapSense_CSHL.c **** * Copyright 2014, Cypress Semiconductor Corporation.  All rights reserved.
  13:.\Generated_Source\PSoC4/CapSense_CSHL.c **** * You may use this file only in accordance with the license, terms, conditions,
  14:.\Generated_Source\PSoC4/CapSense_CSHL.c **** * disclaimers, and limitations in the end user license agreement accompanying
  15:.\Generated_Source\PSoC4/CapSense_CSHL.c **** * the software package with which this file was provided.
  16:.\Generated_Source\PSoC4/CapSense_CSHL.c **** *******************************************************************************/
  17:.\Generated_Source\PSoC4/CapSense_CSHL.c **** 
  18:.\Generated_Source\PSoC4/CapSense_CSHL.c **** #include "CapSense_CSHL.h"
  19:.\Generated_Source\PSoC4/CapSense_CSHL.c **** #include "CapSense_PVT.h"
  20:.\Generated_Source\PSoC4/CapSense_CSHL.c **** 
  21:.\Generated_Source\PSoC4/CapSense_CSHL.c **** /* SmartSense functions */
  22:.\Generated_Source\PSoC4/CapSense_CSHL.c **** #if (CapSense_TUNING_METHOD == CapSense__TUNING_AUTO)
  23:.\Generated_Source\PSoC4/CapSense_CSHL.c ****     extern void CapSense_UpdateThresholds(uint32 sensor);
  24:.\Generated_Source\PSoC4/CapSense_CSHL.c **** #endif /* (CapSense_TUNING_METHOD == CapSense__TUNING_AUTO) */
  25:.\Generated_Source\PSoC4/CapSense_CSHL.c **** 
  26:.\Generated_Source\PSoC4/CapSense_CSHL.c **** /* Storage of filters data */
  27:.\Generated_Source\PSoC4/CapSense_CSHL.c **** #if ( (0u != (CapSense_RAW_FILTER_MASK & CapSense_MEDIAN_FILTER)) || \
  28:.\Generated_Source\PSoC4/CapSense_CSHL.c ****       (0u != (CapSense_RAW_FILTER_MASK & CapSense_AVERAGING_FILTER)) )
  29:.\Generated_Source\PSoC4/CapSense_CSHL.c **** 
  30:.\Generated_Source\PSoC4/CapSense_CSHL.c ****     uint16 CapSense_rawFilterData1[CapSense_TOTAL_SENSOR_COUNT];
  31:.\Generated_Source\PSoC4/CapSense_CSHL.c ****     uint16 CapSense_rawFilterData2[CapSense_TOTAL_SENSOR_COUNT];
  32:.\Generated_Source\PSoC4/CapSense_CSHL.c **** 
  33:.\Generated_Source\PSoC4/CapSense_CSHL.c **** #elif ( (0u != (CapSense_RAW_FILTER_MASK & CapSense_IIR2_FILTER))   || \
  34:.\Generated_Source\PSoC4/CapSense_CSHL.c ****         (0u != (CapSense_RAW_FILTER_MASK & CapSense_IIR4_FILTER))   || \
  35:.\Generated_Source\PSoC4/CapSense_CSHL.c ****         (0u != (CapSense_RAW_FILTER_MASK & CapSense_JITTER_FILTER)) || \
  36:.\Generated_Source\PSoC4/CapSense_CSHL.c ****         (0u != (CapSense_RAW_FILTER_MASK & CapSense_IIR8_FILTER))   || \
  37:.\Generated_Source\PSoC4/CapSense_CSHL.c ****         (0u != (CapSense_RAW_FILTER_MASK & CapSense_IIR16_FILTER)) )
  38:.\Generated_Source\PSoC4/CapSense_CSHL.c ****         
  39:.\Generated_Source\PSoC4/CapSense_CSHL.c ****     uint16 CapSense_rawFilterData1[CapSense_TOTAL_SENSOR_COUNT];
  40:.\Generated_Source\PSoC4/CapSense_CSHL.c **** #endif  /* ( (CapSense_RAW_FILTER_MASK & CapSense_MEDIAN_FILTER) || \
  41:.\Generated_Source\PSoC4/CapSense_CSHL.c ****         *    (CapSense_RAW_FILTER_MASK & CapSense_AVERAGING_FILTER) )
  42:.\Generated_Source\PSoC4/CapSense_CSHL.c ****         */
  43:.\Generated_Source\PSoC4/CapSense_CSHL.c **** 
  44:.\Generated_Source\PSoC4/CapSense_CSHL.c **** extern uint16 CapSense_sensorRaw[CapSense_TOTAL_SENSOR_COUNT];
  45:.\Generated_Source\PSoC4/CapSense_CSHL.c **** extern uint8 CapSense_sensorEnableMask[CapSense_TOTAL_SENSOR_MASK];
  46:.\Generated_Source\PSoC4/CapSense_CSHL.c **** extern const uint8 CapSense_widgetNumber[CapSense_TOTAL_SENSOR_COUNT];
  47:.\Generated_Source\PSoC4/CapSense_CSHL.c **** 
  48:.\Generated_Source\PSoC4/CapSense_CSHL.c **** #if (CapSense_TUNING_METHOD != CapSense__TUNING_NONE)
  49:.\Generated_Source\PSoC4/CapSense_CSHL.c **** 	extern uint32 CapSense_widgetResolution[CapSense_RESOLUTIONS_TBL_SIZE];	
  50:.\Generated_Source\PSoC4/CapSense_CSHL.c **** #endif /* (CapSense_TUNING_METHOD != CapSense__TUNING_NONE) */
  51:.\Generated_Source\PSoC4/CapSense_CSHL.c **** 
  52:.\Generated_Source\PSoC4/CapSense_CSHL.c **** uint16 CapSense_sensorBaseline[CapSense_TOTAL_SENSOR_COUNT] = {0u};
  53:.\Generated_Source\PSoC4/CapSense_CSHL.c **** uint8 CapSense_sensorBaselineLow[CapSense_TOTAL_SENSOR_COUNT] = {0u};
  54:.\Generated_Source\PSoC4/CapSense_CSHL.c **** uint8 CapSense_sensorSignal[CapSense_TOTAL_SENSOR_COUNT] = {0u};
  55:.\Generated_Source\PSoC4/CapSense_CSHL.c **** uint8 CapSense_sensorOnMask[CapSense_TOTAL_SENSOR_MASK] = {0u};
  56:.\Generated_Source\PSoC4/CapSense_CSHL.c **** 
  57:.\Generated_Source\PSoC4/CapSense_CSHL.c **** uint8 CapSense_lowBaselineResetCnt[CapSense_TOTAL_SENSOR_COUNT];
ARM GAS  C:\Users\sunyi\AppData\Local\Temp\ccDxWxH0.s 			page 4


  58:.\Generated_Source\PSoC4/CapSense_CSHL.c **** uint8 CapSense_lowBaselineReset[CapSense_TOTAL_SENSOR_COUNT] = {
  59:.\Generated_Source\PSoC4/CapSense_CSHL.c ****     30u, 30u, 30u, 30u, 30u, 
  60:.\Generated_Source\PSoC4/CapSense_CSHL.c **** };
  61:.\Generated_Source\PSoC4/CapSense_CSHL.c **** 
  62:.\Generated_Source\PSoC4/CapSense_CSHL.c **** 
  63:.\Generated_Source\PSoC4/CapSense_CSHL.c **** 
  64:.\Generated_Source\PSoC4/CapSense_CSHL.c **** #if (CapSense_TUNING_METHOD == CapSense__TUNING_AUTO)
  65:.\Generated_Source\PSoC4/CapSense_CSHL.c **** 	extern CapSense_CONFIG_TYPE_P4_v2_20 CapSense_config;
  66:.\Generated_Source\PSoC4/CapSense_CSHL.c **** #endif  /* (CapSense_TUNING_METHOD == CapSense__TUNING_AUTO) */
  67:.\Generated_Source\PSoC4/CapSense_CSHL.c **** 
  68:.\Generated_Source\PSoC4/CapSense_CSHL.c **** #if (CapSense_RAW_FILTER_MASK != 0u)
  69:.\Generated_Source\PSoC4/CapSense_CSHL.c **** uint8 CapSense_enableRawFilters = CapSense_RAW_FILTERS_ENABLED;
  70:.\Generated_Source\PSoC4/CapSense_CSHL.c **** #endif  /* (CapSense_RAW_FILTER_MASK != 0u) */
  71:.\Generated_Source\PSoC4/CapSense_CSHL.c **** 
  72:.\Generated_Source\PSoC4/CapSense_CSHL.c **** /* Generated by Customizer */
  73:.\Generated_Source\PSoC4/CapSense_CSHL.c **** uint8 CapSense_fingerThreshold[CapSense_THRESHOLD_TBL_SIZE];
  74:.\Generated_Source\PSoC4/CapSense_CSHL.c **** 
  75:.\Generated_Source\PSoC4/CapSense_CSHL.c **** uint8 CapSense_noiseThreshold[CapSense_THRESHOLD_TBL_SIZE];
  76:.\Generated_Source\PSoC4/CapSense_CSHL.c **** 
  77:.\Generated_Source\PSoC4/CapSense_CSHL.c **** uint8 CapSense_negativeNoiseThreshold[CapSense_THRESHOLD_TBL_SIZE];
  78:.\Generated_Source\PSoC4/CapSense_CSHL.c **** 
  79:.\Generated_Source\PSoC4/CapSense_CSHL.c **** uint8 CapSense_hysteresis[CapSense_WIDGET_PARAM_TBL_SIZE];
  80:.\Generated_Source\PSoC4/CapSense_CSHL.c **** 
  81:.\Generated_Source\PSoC4/CapSense_CSHL.c **** uint8 CapSense_debounce[] = {
  82:.\Generated_Source\PSoC4/CapSense_CSHL.c ****     1u, 
  83:.\Generated_Source\PSoC4/CapSense_CSHL.c **** };
  84:.\Generated_Source\PSoC4/CapSense_CSHL.c **** 
  85:.\Generated_Source\PSoC4/CapSense_CSHL.c **** const uint8 CapSense_rawDataIndex[] = {
  86:.\Generated_Source\PSoC4/CapSense_CSHL.c ****     0u, /* LinearSlider0__LS */
  87:.\Generated_Source\PSoC4/CapSense_CSHL.c **** };
  88:.\Generated_Source\PSoC4/CapSense_CSHL.c **** 
  89:.\Generated_Source\PSoC4/CapSense_CSHL.c **** const uint8 CapSense_numberOfSensors[] = {
  90:.\Generated_Source\PSoC4/CapSense_CSHL.c ****     5u, /* LinearSlider0__LS */
  91:.\Generated_Source\PSoC4/CapSense_CSHL.c **** };
  92:.\Generated_Source\PSoC4/CapSense_CSHL.c **** 
  93:.\Generated_Source\PSoC4/CapSense_CSHL.c **** static const uint16 CapSense_centroidMult[] = {
  94:.\Generated_Source\PSoC4/CapSense_CSHL.c ****     6400u, 
  95:.\Generated_Source\PSoC4/CapSense_CSHL.c **** };
  96:.\Generated_Source\PSoC4/CapSense_CSHL.c **** 
  97:.\Generated_Source\PSoC4/CapSense_CSHL.c **** static uint8 CapSense_posFiltersMask[] = {
  98:.\Generated_Source\PSoC4/CapSense_CSHL.c ****     0x2u, 
  99:.\Generated_Source\PSoC4/CapSense_CSHL.c **** };
 100:.\Generated_Source\PSoC4/CapSense_CSHL.c **** 
 101:.\Generated_Source\PSoC4/CapSense_CSHL.c **** static uint8 CapSense_posFiltersData[] = {
 102:.\Generated_Source\PSoC4/CapSense_CSHL.c ****     1u, 0u, 0u, 0u, 
 103:.\Generated_Source\PSoC4/CapSense_CSHL.c **** };
 104:.\Generated_Source\PSoC4/CapSense_CSHL.c **** 
 105:.\Generated_Source\PSoC4/CapSense_CSHL.c **** 
 106:.\Generated_Source\PSoC4/CapSense_CSHL.c **** 
 107:.\Generated_Source\PSoC4/CapSense_CSHL.c **** 
 108:.\Generated_Source\PSoC4/CapSense_CSHL.c **** /*******************************************************************************
 109:.\Generated_Source\PSoC4/CapSense_CSHL.c **** * Function Name: CapSense_BaseInit
 110:.\Generated_Source\PSoC4/CapSense_CSHL.c **** ********************************************************************************
 111:.\Generated_Source\PSoC4/CapSense_CSHL.c **** *
 112:.\Generated_Source\PSoC4/CapSense_CSHL.c **** * Summary:
 113:.\Generated_Source\PSoC4/CapSense_CSHL.c **** *  Loads the CapSense_sensorBaseline[sensor] array element with an 
 114:.\Generated_Source\PSoC4/CapSense_CSHL.c **** *  initial value which is equal to the raw count value. 
ARM GAS  C:\Users\sunyi\AppData\Local\Temp\ccDxWxH0.s 			page 5


 115:.\Generated_Source\PSoC4/CapSense_CSHL.c **** *  Resets to zero CapSense_sensorBaselineLow[sensor] and 
 116:.\Generated_Source\PSoC4/CapSense_CSHL.c **** *  CapSense_sensorSignal[sensor] array element.
 117:.\Generated_Source\PSoC4/CapSense_CSHL.c **** *  Loads the CapSense_rawFilterData2[sensor] and 
 118:.\Generated_Source\PSoC4/CapSense_CSHL.c **** *  CapSense_rawFilterData2[sensor] array element with an 
 119:.\Generated_Source\PSoC4/CapSense_CSHL.c **** *  initial value which is equal to the raw count value if the raw data filter is enabled.
 120:.\Generated_Source\PSoC4/CapSense_CSHL.c **** *
 121:.\Generated_Source\PSoC4/CapSense_CSHL.c **** * Parameters:
 122:.\Generated_Source\PSoC4/CapSense_CSHL.c **** *  sensor:  Sensor number.
 123:.\Generated_Source\PSoC4/CapSense_CSHL.c **** *
 124:.\Generated_Source\PSoC4/CapSense_CSHL.c **** * Return:
 125:.\Generated_Source\PSoC4/CapSense_CSHL.c **** *  None
 126:.\Generated_Source\PSoC4/CapSense_CSHL.c **** *
 127:.\Generated_Source\PSoC4/CapSense_CSHL.c **** * Global Variables:
 128:.\Generated_Source\PSoC4/CapSense_CSHL.c **** *  CapSense_sensorBaseline[]    - used to store the baseline value.
 129:.\Generated_Source\PSoC4/CapSense_CSHL.c **** *  CapSense_sensorBaselineLow[] - used to store the fraction byte of 
 130:.\Generated_Source\PSoC4/CapSense_CSHL.c **** *  the baseline value.
 131:.\Generated_Source\PSoC4/CapSense_CSHL.c **** *  CapSense_sensorSignal[]      - used to store a difference between 
 132:.\Generated_Source\PSoC4/CapSense_CSHL.c **** *  the current value of raw data and the previous value of the baseline.
 133:.\Generated_Source\PSoC4/CapSense_CSHL.c **** *  CapSense_rawFilterData1[]    - used to store a previous sample of 
 134:.\Generated_Source\PSoC4/CapSense_CSHL.c **** *  any enabled raw data filter.
 135:.\Generated_Source\PSoC4/CapSense_CSHL.c **** *  CapSense_rawFilterData2[]    - used to store before a previous sample
 136:.\Generated_Source\PSoC4/CapSense_CSHL.c **** *  of the enabled raw data filter. Required only for median or average filters.
 137:.\Generated_Source\PSoC4/CapSense_CSHL.c **** *
 138:.\Generated_Source\PSoC4/CapSense_CSHL.c **** * Side Effects:
 139:.\Generated_Source\PSoC4/CapSense_CSHL.c **** *  None
 140:.\Generated_Source\PSoC4/CapSense_CSHL.c **** * 
 141:.\Generated_Source\PSoC4/CapSense_CSHL.c **** *******************************************************************************/
 142:.\Generated_Source\PSoC4/CapSense_CSHL.c **** void CapSense_BaseInit(uint32 sensor)
 143:.\Generated_Source\PSoC4/CapSense_CSHL.c **** {
 111              		.loc 1 143 0
 112              		.cfi_startproc
 113 0000 80B5     		push	{r7, lr}
 114              		.cfi_def_cfa_offset 8
 115              		.cfi_offset 7, -8
 116              		.cfi_offset 14, -4
 117 0002 82B0     		sub	sp, sp, #8
 118              		.cfi_def_cfa_offset 16
 119 0004 00AF     		add	r7, sp, #0
 120              		.cfi_def_cfa_register 7
 121 0006 7860     		str	r0, [r7, #4]
 144:.\Generated_Source\PSoC4/CapSense_CSHL.c ****     #if ((CapSense_TOTAL_BUTTONS_COUNT) || (CapSense_TOTAL_MATRIX_BUTTONS_COUNT) || \
 145:.\Generated_Source\PSoC4/CapSense_CSHL.c ****          (CapSense_TOTAL_GENERICS_COUNT))
 146:.\Generated_Source\PSoC4/CapSense_CSHL.c ****         uint8 widget = CapSense_widgetNumber[sensor];
 147:.\Generated_Source\PSoC4/CapSense_CSHL.c ****     #endif /* ((CapSense_TOTAL_MATRIX_BUTTONS_COUNT) || (CapSense_TOTAL_MATRIX_BUTTONS_COUNT)) */
 148:.\Generated_Source\PSoC4/CapSense_CSHL.c ****     
 149:.\Generated_Source\PSoC4/CapSense_CSHL.c ****     #if (CapSense_TOTAL_MATRIX_BUTTONS_COUNT)
 150:.\Generated_Source\PSoC4/CapSense_CSHL.c ****         uint8 debounceIndex;
 151:.\Generated_Source\PSoC4/CapSense_CSHL.c ****     #endif  /* (CapSense_TOTAL_MATRIX_BUTTONS_COUNT) */
 152:.\Generated_Source\PSoC4/CapSense_CSHL.c ****     
 153:.\Generated_Source\PSoC4/CapSense_CSHL.c ****     #if (CapSense_TOTAL_GENERICS_COUNT)
 154:.\Generated_Source\PSoC4/CapSense_CSHL.c ****         /* Exclude generic widget */
 155:.\Generated_Source\PSoC4/CapSense_CSHL.c ****         if(widget < CapSense_END_OF_WIDGETS_INDEX)
 156:.\Generated_Source\PSoC4/CapSense_CSHL.c ****         {
 157:.\Generated_Source\PSoC4/CapSense_CSHL.c ****     #endif  /* CapSense_TOTAL_GENERICS_COUNT */
 158:.\Generated_Source\PSoC4/CapSense_CSHL.c ****     
 159:.\Generated_Source\PSoC4/CapSense_CSHL.c ****     /* Initialize Baseline */
 160:.\Generated_Source\PSoC4/CapSense_CSHL.c ****     CapSense_sensorBaseline[sensor] = CapSense_sensorRaw[sensor];
ARM GAS  C:\Users\sunyi\AppData\Local\Temp\ccDxWxH0.s 			page 6


 122              		.loc 1 160 0
 123 0008 0E4B     		ldr	r3, .L2
 124 000a 7A68     		ldr	r2, [r7, #4]
 125 000c 5200     		lsl	r2, r2, #1
 126 000e D15A     		ldrh	r1, [r2, r3]
 127 0010 0D4B     		ldr	r3, .L2+4
 128 0012 7A68     		ldr	r2, [r7, #4]
 129 0014 5200     		lsl	r2, r2, #1
 130 0016 D152     		strh	r1, [r2, r3]
 161:.\Generated_Source\PSoC4/CapSense_CSHL.c ****     CapSense_sensorBaselineLow[sensor] = 0u;
 131              		.loc 1 161 0
 132 0018 0C4A     		ldr	r2, .L2+8
 133 001a 7B68     		ldr	r3, [r7, #4]
 134 001c D318     		add	r3, r2, r3
 135 001e 0022     		mov	r2, #0
 136 0020 1A70     		strb	r2, [r3]
 162:.\Generated_Source\PSoC4/CapSense_CSHL.c ****     CapSense_sensorSignal[sensor] = 0u;
 137              		.loc 1 162 0
 138 0022 0B4A     		ldr	r2, .L2+12
 139 0024 7B68     		ldr	r3, [r7, #4]
 140 0026 D318     		add	r3, r2, r3
 141 0028 0022     		mov	r2, #0
 142 002a 1A70     		strb	r2, [r3]
 163:.\Generated_Source\PSoC4/CapSense_CSHL.c ****         
 164:.\Generated_Source\PSoC4/CapSense_CSHL.c **** 
 165:.\Generated_Source\PSoC4/CapSense_CSHL.c ****     
 166:.\Generated_Source\PSoC4/CapSense_CSHL.c ****     #if ((0u != (CapSense_RAW_FILTER_MASK & CapSense_MEDIAN_FILTER)) ||\
 167:.\Generated_Source\PSoC4/CapSense_CSHL.c ****          (0u != (CapSense_RAW_FILTER_MASK & CapSense_AVERAGING_FILTER)))
 168:.\Generated_Source\PSoC4/CapSense_CSHL.c **** 
 169:.\Generated_Source\PSoC4/CapSense_CSHL.c ****         CapSense_rawFilterData1[sensor] = CapSense_sensorRaw[sensor];
 170:.\Generated_Source\PSoC4/CapSense_CSHL.c ****         CapSense_rawFilterData2[sensor] = CapSense_sensorRaw[sensor];
 171:.\Generated_Source\PSoC4/CapSense_CSHL.c ****     
 172:.\Generated_Source\PSoC4/CapSense_CSHL.c ****     #elif ((CapSense_RAW_FILTER_MASK & CapSense_IIR2_FILTER) ||\
 173:.\Generated_Source\PSoC4/CapSense_CSHL.c ****            (CapSense_RAW_FILTER_MASK & CapSense_IIR4_FILTER) ||\
 174:.\Generated_Source\PSoC4/CapSense_CSHL.c ****            (CapSense_RAW_FILTER_MASK & CapSense_JITTER_FILTER) ||\
 175:.\Generated_Source\PSoC4/CapSense_CSHL.c ****            (CapSense_RAW_FILTER_MASK & CapSense_IIR8_FILTER) ||\
 176:.\Generated_Source\PSoC4/CapSense_CSHL.c ****            (CapSense_RAW_FILTER_MASK & CapSense_IIR16_FILTER))
 177:.\Generated_Source\PSoC4/CapSense_CSHL.c ****             
 178:.\Generated_Source\PSoC4/CapSense_CSHL.c ****         CapSense_rawFilterData1[sensor] = CapSense_sensorRaw[sensor];
 143              		.loc 1 178 0
 144 002c 054B     		ldr	r3, .L2
 145 002e 7A68     		ldr	r2, [r7, #4]
 146 0030 5200     		lsl	r2, r2, #1
 147 0032 D15A     		ldrh	r1, [r2, r3]
 148 0034 074B     		ldr	r3, .L2+16
 149 0036 7A68     		ldr	r2, [r7, #4]
 150 0038 5200     		lsl	r2, r2, #1
 151 003a D152     		strh	r1, [r2, r3]
 179:.\Generated_Source\PSoC4/CapSense_CSHL.c ****     
 180:.\Generated_Source\PSoC4/CapSense_CSHL.c ****     #else
 181:.\Generated_Source\PSoC4/CapSense_CSHL.c ****         /* No Raw filters */
 182:.\Generated_Source\PSoC4/CapSense_CSHL.c ****     #endif  /* ((CapSense_RAW_FILTER_MASK & CapSense_MEDIAN_FILTER) || \
 183:.\Generated_Source\PSoC4/CapSense_CSHL.c ****             *   (CapSense_RAW_FILTER_MASK & CapSense_AVERAGING_FILTER))
 184:.\Generated_Source\PSoC4/CapSense_CSHL.c ****             */
 185:.\Generated_Source\PSoC4/CapSense_CSHL.c ****     
 186:.\Generated_Source\PSoC4/CapSense_CSHL.c ****     #if (CapSense_TOTAL_GENERICS_COUNT)
 187:.\Generated_Source\PSoC4/CapSense_CSHL.c ****         /* Exclude generic widget */
ARM GAS  C:\Users\sunyi\AppData\Local\Temp\ccDxWxH0.s 			page 7


 188:.\Generated_Source\PSoC4/CapSense_CSHL.c ****         }
 189:.\Generated_Source\PSoC4/CapSense_CSHL.c ****     #endif  /* CapSense_TOTAL_GENERICS_COUNT */
 190:.\Generated_Source\PSoC4/CapSense_CSHL.c **** }
 152              		.loc 1 190 0
 153 003c BD46     		mov	sp, r7
 154 003e 02B0     		add	sp, sp, #8
 155              		@ sp needed
 156 0040 80BD     		pop	{r7, pc}
 157              	.L3:
 158 0042 C046     		.align	2
 159              	.L2:
 160 0044 00000000 		.word	CapSense_sensorRaw
 161 0048 00000000 		.word	CapSense_sensorBaseline
 162 004c 00000000 		.word	CapSense_sensorBaselineLow
 163 0050 00000000 		.word	CapSense_sensorSignal
 164 0054 00000000 		.word	CapSense_rawFilterData1
 165              		.cfi_endproc
 166              	.LFE35:
 167              		.size	CapSense_BaseInit, .-CapSense_BaseInit
 168              		.section	.text.CapSense_InitializeSensorBaseline,"ax",%progbits
 169              		.align	2
 170              		.global	CapSense_InitializeSensorBaseline
 171              		.code	16
 172              		.thumb_func
 173              		.type	CapSense_InitializeSensorBaseline, %function
 174              	CapSense_InitializeSensorBaseline:
 175              	.LFB36:
 191:.\Generated_Source\PSoC4/CapSense_CSHL.c **** 
 192:.\Generated_Source\PSoC4/CapSense_CSHL.c **** 
 193:.\Generated_Source\PSoC4/CapSense_CSHL.c **** /*******************************************************************************
 194:.\Generated_Source\PSoC4/CapSense_CSHL.c **** * Function Name: CapSense_InitializeSensorBaseline
 195:.\Generated_Source\PSoC4/CapSense_CSHL.c **** ********************************************************************************
 196:.\Generated_Source\PSoC4/CapSense_CSHL.c **** *
 197:.\Generated_Source\PSoC4/CapSense_CSHL.c **** * Summary:
 198:.\Generated_Source\PSoC4/CapSense_CSHL.c **** *  Loads the CapSense_sensorBaseline[sensor] array element with an 
 199:.\Generated_Source\PSoC4/CapSense_CSHL.c **** *  initial value by scanning the selected sensor (one channel design) or a pair 
 200:.\Generated_Source\PSoC4/CapSense_CSHL.c **** *  of sensors (two channels designs). The raw count value is copied into the 
 201:.\Generated_Source\PSoC4/CapSense_CSHL.c **** *  baseline array for each sensor. The raw data filters are initialized if 
 202:.\Generated_Source\PSoC4/CapSense_CSHL.c **** *  enabled.
 203:.\Generated_Source\PSoC4/CapSense_CSHL.c **** *
 204:.\Generated_Source\PSoC4/CapSense_CSHL.c **** * Parameters:
 205:.\Generated_Source\PSoC4/CapSense_CSHL.c **** *  sensor:  Sensor number.
 206:.\Generated_Source\PSoC4/CapSense_CSHL.c **** *
 207:.\Generated_Source\PSoC4/CapSense_CSHL.c **** * Return:
 208:.\Generated_Source\PSoC4/CapSense_CSHL.c **** *  None
 209:.\Generated_Source\PSoC4/CapSense_CSHL.c **** *
 210:.\Generated_Source\PSoC4/CapSense_CSHL.c **** * Global Variables:
 211:.\Generated_Source\PSoC4/CapSense_CSHL.c **** *  None
 212:.\Generated_Source\PSoC4/CapSense_CSHL.c **** *
 213:.\Generated_Source\PSoC4/CapSense_CSHL.c **** * Side Effects:
 214:.\Generated_Source\PSoC4/CapSense_CSHL.c **** *  None
 215:.\Generated_Source\PSoC4/CapSense_CSHL.c **** * 
 216:.\Generated_Source\PSoC4/CapSense_CSHL.c **** *******************************************************************************/
 217:.\Generated_Source\PSoC4/CapSense_CSHL.c **** void CapSense_InitializeSensorBaseline(uint32 sensor)
 218:.\Generated_Source\PSoC4/CapSense_CSHL.c **** {
 176              		.loc 1 218 0
 177              		.cfi_startproc
ARM GAS  C:\Users\sunyi\AppData\Local\Temp\ccDxWxH0.s 			page 8


 178 0000 80B5     		push	{r7, lr}
 179              		.cfi_def_cfa_offset 8
 180              		.cfi_offset 7, -8
 181              		.cfi_offset 14, -4
 182 0002 82B0     		sub	sp, sp, #8
 183              		.cfi_def_cfa_offset 16
 184 0004 00AF     		add	r7, sp, #0
 185              		.cfi_def_cfa_register 7
 186 0006 7860     		str	r0, [r7, #4]
 219:.\Generated_Source\PSoC4/CapSense_CSHL.c ****     /* Scan sensor */
 220:.\Generated_Source\PSoC4/CapSense_CSHL.c ****     CapSense_ScanSensor(sensor);
 187              		.loc 1 220 0
 188 0008 7B68     		ldr	r3, [r7, #4]
 189 000a 181C     		mov	r0, r3
 190 000c FFF7FEFF 		bl	CapSense_ScanSensor
 221:.\Generated_Source\PSoC4/CapSense_CSHL.c ****     while(CapSense_IsBusy() != 0u)
 191              		.loc 1 221 0
 192 0010 C046     		mov	r8, r8
 193              	.L5:
 194              		.loc 1 221 0 is_stmt 0 discriminator 1
 195 0012 FFF7FEFF 		bl	CapSense_IsBusy
 196 0016 031E     		sub	r3, r0, #0
 197 0018 FBD1     		bne	.L5
 222:.\Generated_Source\PSoC4/CapSense_CSHL.c ****     {
 223:.\Generated_Source\PSoC4/CapSense_CSHL.c ****         /* Wait while sensor is busy */
 224:.\Generated_Source\PSoC4/CapSense_CSHL.c ****     }
 225:.\Generated_Source\PSoC4/CapSense_CSHL.c ****     
 226:.\Generated_Source\PSoC4/CapSense_CSHL.c ****     /* Initialize Baseline, Signal and debounce counters */       
 227:.\Generated_Source\PSoC4/CapSense_CSHL.c ****     CapSense_BaseInit(sensor);
 198              		.loc 1 227 0 is_stmt 1
 199 001a 7B68     		ldr	r3, [r7, #4]
 200 001c 181C     		mov	r0, r3
 201 001e FFF7FEFF 		bl	CapSense_BaseInit
 228:.\Generated_Source\PSoC4/CapSense_CSHL.c **** }
 202              		.loc 1 228 0
 203 0022 BD46     		mov	sp, r7
 204 0024 02B0     		add	sp, sp, #8
 205              		@ sp needed
 206 0026 80BD     		pop	{r7, pc}
 207              		.cfi_endproc
 208              	.LFE36:
 209              		.size	CapSense_InitializeSensorBaseline, .-CapSense_InitializeSensorBaseline
 210              		.section	.text.CapSense_InitializeAllBaselines,"ax",%progbits
 211              		.align	2
 212              		.global	CapSense_InitializeAllBaselines
 213              		.code	16
 214              		.thumb_func
 215              		.type	CapSense_InitializeAllBaselines, %function
 216              	CapSense_InitializeAllBaselines:
 217              	.LFB37:
 229:.\Generated_Source\PSoC4/CapSense_CSHL.c **** 
 230:.\Generated_Source\PSoC4/CapSense_CSHL.c **** 
 231:.\Generated_Source\PSoC4/CapSense_CSHL.c **** /*******************************************************************************
 232:.\Generated_Source\PSoC4/CapSense_CSHL.c **** * Function Name: CapSense_InitializeAllBaselines
 233:.\Generated_Source\PSoC4/CapSense_CSHL.c **** ********************************************************************************
 234:.\Generated_Source\PSoC4/CapSense_CSHL.c **** *
 235:.\Generated_Source\PSoC4/CapSense_CSHL.c **** * Summary:
ARM GAS  C:\Users\sunyi\AppData\Local\Temp\ccDxWxH0.s 			page 9


 236:.\Generated_Source\PSoC4/CapSense_CSHL.c **** *  Uses the CapSense_InitializeSensorBaseline function to load the 
 237:.\Generated_Source\PSoC4/CapSense_CSHL.c **** *  CapSense_sensorBaseline[] array with an initial values by scanning 
 238:.\Generated_Source\PSoC4/CapSense_CSHL.c **** *  all the sensors. The raw count values are copied into the baseline array for 
 239:.\Generated_Source\PSoC4/CapSense_CSHL.c **** *  all the sensors. The raw data filters are initialized if enabled.
 240:.\Generated_Source\PSoC4/CapSense_CSHL.c **** *
 241:.\Generated_Source\PSoC4/CapSense_CSHL.c **** * Parameters:
 242:.\Generated_Source\PSoC4/CapSense_CSHL.c **** *  None
 243:.\Generated_Source\PSoC4/CapSense_CSHL.c **** *
 244:.\Generated_Source\PSoC4/CapSense_CSHL.c **** * Return:
 245:.\Generated_Source\PSoC4/CapSense_CSHL.c **** *  None
 246:.\Generated_Source\PSoC4/CapSense_CSHL.c **** *
 247:.\Generated_Source\PSoC4/CapSense_CSHL.c **** * Global Variables:
 248:.\Generated_Source\PSoC4/CapSense_CSHL.c **** *  None
 249:.\Generated_Source\PSoC4/CapSense_CSHL.c **** *
 250:.\Generated_Source\PSoC4/CapSense_CSHL.c **** * Side Effects:
 251:.\Generated_Source\PSoC4/CapSense_CSHL.c **** *  None
 252:.\Generated_Source\PSoC4/CapSense_CSHL.c **** * 
 253:.\Generated_Source\PSoC4/CapSense_CSHL.c **** *******************************************************************************/
 254:.\Generated_Source\PSoC4/CapSense_CSHL.c **** void CapSense_InitializeAllBaselines(void)
 255:.\Generated_Source\PSoC4/CapSense_CSHL.c **** {
 218              		.loc 1 255 0
 219              		.cfi_startproc
 220 0000 80B5     		push	{r7, lr}
 221              		.cfi_def_cfa_offset 8
 222              		.cfi_offset 7, -8
 223              		.cfi_offset 14, -4
 224 0002 82B0     		sub	sp, sp, #8
 225              		.cfi_def_cfa_offset 16
 226 0004 00AF     		add	r7, sp, #0
 227              		.cfi_def_cfa_register 7
 256:.\Generated_Source\PSoC4/CapSense_CSHL.c ****     uint32 i;
 257:.\Generated_Source\PSoC4/CapSense_CSHL.c ****     
 258:.\Generated_Source\PSoC4/CapSense_CSHL.c **** 	for(i = 0u; i < CapSense_TOTAL_SCANSLOT_COUNT; i++)
 228              		.loc 1 258 0
 229 0006 0023     		mov	r3, #0
 230 0008 7B60     		str	r3, [r7, #4]
 231 000a 06E0     		b	.L7
 232              	.L8:
 259:.\Generated_Source\PSoC4/CapSense_CSHL.c **** 	{
 260:.\Generated_Source\PSoC4/CapSense_CSHL.c ****     	CapSense_InitializeSensorBaseline(i);
 233              		.loc 1 260 0 discriminator 3
 234 000c 7B68     		ldr	r3, [r7, #4]
 235 000e 181C     		mov	r0, r3
 236 0010 FFF7FEFF 		bl	CapSense_InitializeSensorBaseline
 258:.\Generated_Source\PSoC4/CapSense_CSHL.c **** 	{
 237              		.loc 1 258 0 discriminator 3
 238 0014 7B68     		ldr	r3, [r7, #4]
 239 0016 0133     		add	r3, r3, #1
 240 0018 7B60     		str	r3, [r7, #4]
 241              	.L7:
 258:.\Generated_Source\PSoC4/CapSense_CSHL.c **** 	{
 242              		.loc 1 258 0 is_stmt 0 discriminator 1
 243 001a 7B68     		ldr	r3, [r7, #4]
 244 001c 042B     		cmp	r3, #4
 245 001e F5D9     		bls	.L8
 261:.\Generated_Source\PSoC4/CapSense_CSHL.c **** 	}
 262:.\Generated_Source\PSoC4/CapSense_CSHL.c **** }
ARM GAS  C:\Users\sunyi\AppData\Local\Temp\ccDxWxH0.s 			page 10


 246              		.loc 1 262 0 is_stmt 1
 247 0020 BD46     		mov	sp, r7
 248 0022 02B0     		add	sp, sp, #8
 249              		@ sp needed
 250 0024 80BD     		pop	{r7, pc}
 251              		.cfi_endproc
 252              	.LFE37:
 253              		.size	CapSense_InitializeAllBaselines, .-CapSense_InitializeAllBaselines
 254 0026 C046     		.section	.text.CapSense_InitializeEnabledBaselines,"ax",%progbits
 255              		.align	2
 256              		.global	CapSense_InitializeEnabledBaselines
 257              		.code	16
 258              		.thumb_func
 259              		.type	CapSense_InitializeEnabledBaselines, %function
 260              	CapSense_InitializeEnabledBaselines:
 261              	.LFB38:
 263:.\Generated_Source\PSoC4/CapSense_CSHL.c **** 
 264:.\Generated_Source\PSoC4/CapSense_CSHL.c **** 
 265:.\Generated_Source\PSoC4/CapSense_CSHL.c **** /*******************************************************************************
 266:.\Generated_Source\PSoC4/CapSense_CSHL.c **** * Function Name: CapSense_InitializeEnabledBaselines
 267:.\Generated_Source\PSoC4/CapSense_CSHL.c **** ********************************************************************************
 268:.\Generated_Source\PSoC4/CapSense_CSHL.c **** *
 269:.\Generated_Source\PSoC4/CapSense_CSHL.c **** * Summary:
 270:.\Generated_Source\PSoC4/CapSense_CSHL.c **** *  Scans all the enabled widgets and the raw count values are copied into the 
 271:.\Generated_Source\PSoC4/CapSense_CSHL.c **** *  baseline array for all the sensors enabled in the scanning process. The baselines 
 272:.\Generated_Source\PSoC4/CapSense_CSHL.c **** *  are initialized with zero values for sensors disabled from the scanning process. 
 273:.\Generated_Source\PSoC4/CapSense_CSHL.c **** *  The raw data filters are initialized if enabled.
 274:.\Generated_Source\PSoC4/CapSense_CSHL.c **** *
 275:.\Generated_Source\PSoC4/CapSense_CSHL.c **** * Parameters:
 276:.\Generated_Source\PSoC4/CapSense_CSHL.c **** *  None
 277:.\Generated_Source\PSoC4/CapSense_CSHL.c **** *
 278:.\Generated_Source\PSoC4/CapSense_CSHL.c **** * Return:
 279:.\Generated_Source\PSoC4/CapSense_CSHL.c **** *  None
 280:.\Generated_Source\PSoC4/CapSense_CSHL.c **** *
 281:.\Generated_Source\PSoC4/CapSense_CSHL.c **** * Global Variables:
 282:.\Generated_Source\PSoC4/CapSense_CSHL.c **** *  CapSense_sensorRaw[] - used to store the sensors raw data.
 283:.\Generated_Source\PSoC4/CapSense_CSHL.c **** *  CapSense_sensorEnableMask[ ] - used to store bit masks of the enabled sensors.
 284:.\Generated_Source\PSoC4/CapSense_CSHL.c **** *
 285:.\Generated_Source\PSoC4/CapSense_CSHL.c **** * Side Effects:
 286:.\Generated_Source\PSoC4/CapSense_CSHL.c **** *  None
 287:.\Generated_Source\PSoC4/CapSense_CSHL.c **** * 
 288:.\Generated_Source\PSoC4/CapSense_CSHL.c **** *******************************************************************************/
 289:.\Generated_Source\PSoC4/CapSense_CSHL.c **** void CapSense_InitializeEnabledBaselines(void)
 290:.\Generated_Source\PSoC4/CapSense_CSHL.c **** {
 262              		.loc 1 290 0
 263              		.cfi_startproc
 264 0000 80B5     		push	{r7, lr}
 265              		.cfi_def_cfa_offset 8
 266              		.cfi_offset 7, -8
 267              		.cfi_offset 14, -4
 268 0002 82B0     		sub	sp, sp, #8
 269              		.cfi_def_cfa_offset 16
 270 0004 00AF     		add	r7, sp, #0
 271              		.cfi_def_cfa_register 7
 291:.\Generated_Source\PSoC4/CapSense_CSHL.c ****     uint32 i;
 292:.\Generated_Source\PSoC4/CapSense_CSHL.c ****     uint32 isSensorEnabled;
 293:.\Generated_Source\PSoC4/CapSense_CSHL.c ****     
ARM GAS  C:\Users\sunyi\AppData\Local\Temp\ccDxWxH0.s 			page 11


 294:.\Generated_Source\PSoC4/CapSense_CSHL.c ****     CapSense_ScanEnabledWidgets();
 272              		.loc 1 294 0
 273 0006 FFF7FEFF 		bl	CapSense_ScanEnabledWidgets
 295:.\Generated_Source\PSoC4/CapSense_CSHL.c ****     while(CapSense_IsBusy() != 0u)
 274              		.loc 1 295 0
 275 000a C046     		mov	r8, r8
 276              	.L10:
 277              		.loc 1 295 0 is_stmt 0 discriminator 1
 278 000c FFF7FEFF 		bl	CapSense_IsBusy
 279 0010 031E     		sub	r3, r0, #0
 280 0012 FBD1     		bne	.L10
 296:.\Generated_Source\PSoC4/CapSense_CSHL.c ****     {
 297:.\Generated_Source\PSoC4/CapSense_CSHL.c ****         /* Wait while sensor is busy */
 298:.\Generated_Source\PSoC4/CapSense_CSHL.c ****     }
 299:.\Generated_Source\PSoC4/CapSense_CSHL.c ****     
 300:.\Generated_Source\PSoC4/CapSense_CSHL.c ****     for(i = 0u; i < CapSense_TOTAL_SENSOR_COUNT; i++)
 281              		.loc 1 300 0 is_stmt 1
 282 0014 0023     		mov	r3, #0
 283 0016 7B60     		str	r3, [r7, #4]
 284 0018 11E0     		b	.L11
 285              	.L13:
 301:.\Generated_Source\PSoC4/CapSense_CSHL.c ****     {
 302:.\Generated_Source\PSoC4/CapSense_CSHL.c ****         isSensorEnabled = CapSense_GetBitValue(CapSense_sensorEnableMask, i);
 286              		.loc 1 302 0
 287 001a 0C4A     		ldr	r2, .L14
 288 001c 7B68     		ldr	r3, [r7, #4]
 289 001e 101C     		mov	r0, r2
 290 0020 191C     		mov	r1, r3
 291 0022 FFF7FEFF 		bl	CapSense_GetBitValue
 292 0026 031C     		mov	r3, r0
 293 0028 3B60     		str	r3, [r7]
 303:.\Generated_Source\PSoC4/CapSense_CSHL.c ****         
 304:.\Generated_Source\PSoC4/CapSense_CSHL.c ****         /* Clear raw data if sensor is disabled from scanning process */
 305:.\Generated_Source\PSoC4/CapSense_CSHL.c ****         if(isSensorEnabled != 0u)
 294              		.loc 1 305 0
 295 002a 3B68     		ldr	r3, [r7]
 296 002c 002B     		cmp	r3, #0
 297 002e 03D0     		beq	.L12
 306:.\Generated_Source\PSoC4/CapSense_CSHL.c ****         {
 307:.\Generated_Source\PSoC4/CapSense_CSHL.c ****             /* Initialize baselines */
 308:.\Generated_Source\PSoC4/CapSense_CSHL.c ****             CapSense_BaseInit(i);
 298              		.loc 1 308 0
 299 0030 7B68     		ldr	r3, [r7, #4]
 300 0032 181C     		mov	r0, r3
 301 0034 FFF7FEFF 		bl	CapSense_BaseInit
 302              	.L12:
 300:.\Generated_Source\PSoC4/CapSense_CSHL.c ****     {
 303              		.loc 1 300 0 discriminator 2
 304 0038 7B68     		ldr	r3, [r7, #4]
 305 003a 0133     		add	r3, r3, #1
 306 003c 7B60     		str	r3, [r7, #4]
 307              	.L11:
 300:.\Generated_Source\PSoC4/CapSense_CSHL.c ****     {
 308              		.loc 1 300 0 is_stmt 0 discriminator 1
 309 003e 7B68     		ldr	r3, [r7, #4]
 310 0040 042B     		cmp	r3, #4
 311 0042 EAD9     		bls	.L13
ARM GAS  C:\Users\sunyi\AppData\Local\Temp\ccDxWxH0.s 			page 12


 309:.\Generated_Source\PSoC4/CapSense_CSHL.c ****         }
 310:.\Generated_Source\PSoC4/CapSense_CSHL.c ****     }
 311:.\Generated_Source\PSoC4/CapSense_CSHL.c **** }  
 312              		.loc 1 311 0 is_stmt 1
 313 0044 BD46     		mov	sp, r7
 314 0046 02B0     		add	sp, sp, #8
 315              		@ sp needed
 316 0048 80BD     		pop	{r7, pc}
 317              	.L15:
 318 004a C046     		.align	2
 319              	.L14:
 320 004c 00000000 		.word	CapSense_sensorEnableMask
 321              		.cfi_endproc
 322              	.LFE38:
 323              		.size	CapSense_InitializeEnabledBaselines, .-CapSense_InitializeEnabledBaselines
 324              		.section	.text.CapSense_UpdateBaselineNoThreshold,"ax",%progbits
 325              		.align	2
 326              		.global	CapSense_UpdateBaselineNoThreshold
 327              		.code	16
 328              		.thumb_func
 329              		.type	CapSense_UpdateBaselineNoThreshold, %function
 330              	CapSense_UpdateBaselineNoThreshold:
 331              	.LFB39:
 312:.\Generated_Source\PSoC4/CapSense_CSHL.c **** 
 313:.\Generated_Source\PSoC4/CapSense_CSHL.c **** 
 314:.\Generated_Source\PSoC4/CapSense_CSHL.c **** /*******************************************************************************
 315:.\Generated_Source\PSoC4/CapSense_CSHL.c **** * Function Name: CapSense_UpdateBaselineNoThreshold
 316:.\Generated_Source\PSoC4/CapSense_CSHL.c **** ********************************************************************************
 317:.\Generated_Source\PSoC4/CapSense_CSHL.c **** *
 318:.\Generated_Source\PSoC4/CapSense_CSHL.c **** * Summary:
 319:.\Generated_Source\PSoC4/CapSense_CSHL.c **** *  Updates the CapSense_sensorBaseline[sensor] array element using the 
 320:.\Generated_Source\PSoC4/CapSense_CSHL.c **** *  LP filter with k = 256. The signal calculates the difference of count by 
 321:.\Generated_Source\PSoC4/CapSense_CSHL.c **** *  subtracting the previous baseline from the current raw count value and stores
 322:.\Generated_Source\PSoC4/CapSense_CSHL.c **** *  it in CapSense_sensorSignal[sensor]. 
 323:.\Generated_Source\PSoC4/CapSense_CSHL.c **** *  If the auto reset option is enabled, the baseline updated regards the noise threshold. 
 324:.\Generated_Source\PSoC4/CapSense_CSHL.c **** *  If the auto reset option is disabled, the baseline stops updating; baseline is loaded 
 325:.\Generated_Source\PSoC4/CapSense_CSHL.c **** *  with a raw count value if a signal is greater than zero and if signal is less 
 326:.\Generated_Source\PSoC4/CapSense_CSHL.c **** *  than noise threshold.
 327:.\Generated_Source\PSoC4/CapSense_CSHL.c **** *  Raw data filters are applied to the values if enabled before baseline 
 328:.\Generated_Source\PSoC4/CapSense_CSHL.c **** *  calculation.
 329:.\Generated_Source\PSoC4/CapSense_CSHL.c **** *
 330:.\Generated_Source\PSoC4/CapSense_CSHL.c **** *  This API does not update the thresholds in the Smartsense Mode.
 331:.\Generated_Source\PSoC4/CapSense_CSHL.c **** *
 332:.\Generated_Source\PSoC4/CapSense_CSHL.c **** * Parameters:
 333:.\Generated_Source\PSoC4/CapSense_CSHL.c **** *  sensor:  Sensor number.
 334:.\Generated_Source\PSoC4/CapSense_CSHL.c **** *
 335:.\Generated_Source\PSoC4/CapSense_CSHL.c **** * Return:
 336:.\Generated_Source\PSoC4/CapSense_CSHL.c **** *  None
 337:.\Generated_Source\PSoC4/CapSense_CSHL.c **** *
 338:.\Generated_Source\PSoC4/CapSense_CSHL.c **** * Global Variables:
 339:.\Generated_Source\PSoC4/CapSense_CSHL.c **** *  CapSense_widgetNumber[]  - stores widget numbers.
 340:.\Generated_Source\PSoC4/CapSense_CSHL.c **** *  CapSense_sensorBaseline[]    - used to store baseline value.
 341:.\Generated_Source\PSoC4/CapSense_CSHL.c **** *  CapSense_sensorBaselineLow[] - used to store fraction byte of 
 342:.\Generated_Source\PSoC4/CapSense_CSHL.c **** *  baseline value.
 343:.\Generated_Source\PSoC4/CapSense_CSHL.c **** *  CapSense_sensorSignal[]      - used to store difference between 
 344:.\Generated_Source\PSoC4/CapSense_CSHL.c **** *  current value of raw data and previous value of baseline.
 345:.\Generated_Source\PSoC4/CapSense_CSHL.c **** *  CapSense_rawFilterData1[]    - used to store previous sample of 
ARM GAS  C:\Users\sunyi\AppData\Local\Temp\ccDxWxH0.s 			page 13


 346:.\Generated_Source\PSoC4/CapSense_CSHL.c **** *  any enabled raw data filter.
 347:.\Generated_Source\PSoC4/CapSense_CSHL.c **** *  CapSense_rawFilterData2[]    - used to store before previous sample
 348:.\Generated_Source\PSoC4/CapSense_CSHL.c **** *  of enabled raw data filter. Only required for median or average filters.
 349:.\Generated_Source\PSoC4/CapSense_CSHL.c **** * 
 350:.\Generated_Source\PSoC4/CapSense_CSHL.c **** * Side Effects:
 351:.\Generated_Source\PSoC4/CapSense_CSHL.c **** *  None
 352:.\Generated_Source\PSoC4/CapSense_CSHL.c **** * 
 353:.\Generated_Source\PSoC4/CapSense_CSHL.c **** *******************************************************************************/
 354:.\Generated_Source\PSoC4/CapSense_CSHL.c **** void CapSense_UpdateBaselineNoThreshold(uint32 sensor)
 355:.\Generated_Source\PSoC4/CapSense_CSHL.c **** {
 332              		.loc 1 355 0
 333              		.cfi_startproc
 334 0000 90B5     		push	{r4, r7, lr}
 335              		.cfi_def_cfa_offset 12
 336              		.cfi_offset 4, -12
 337              		.cfi_offset 7, -8
 338              		.cfi_offset 14, -4
 339 0002 87B0     		sub	sp, sp, #28
 340              		.cfi_def_cfa_offset 40
 341 0004 00AF     		add	r7, sp, #0
 342              		.cfi_def_cfa_register 7
 343 0006 7860     		str	r0, [r7, #4]
 356:.\Generated_Source\PSoC4/CapSense_CSHL.c ****     uint32 calc;
 357:.\Generated_Source\PSoC4/CapSense_CSHL.c **** 	uint32 sign;
 358:.\Generated_Source\PSoC4/CapSense_CSHL.c ****     uint16 tempRaw;
 359:.\Generated_Source\PSoC4/CapSense_CSHL.c ****     uint16 filteredRawData;
 360:.\Generated_Source\PSoC4/CapSense_CSHL.c ****     uint8 widget = CapSense_widgetNumber[sensor];
 344              		.loc 1 360 0
 345 0008 0F23     		mov	r3, #15
 346 000a FB18     		add	r3, r7, r3
 347 000c 7E49     		ldr	r1, .L29
 348 000e 7A68     		ldr	r2, [r7, #4]
 349 0010 8A18     		add	r2, r1, r2
 350 0012 1278     		ldrb	r2, [r2]
 351 0014 1A70     		strb	r2, [r3]
 361:.\Generated_Source\PSoC4/CapSense_CSHL.c ****     uint8 noiseThreshold = CapSense_noiseThreshold[widget];
 352              		.loc 1 361 0
 353 0016 0F23     		mov	r3, #15
 354 0018 FB18     		add	r3, r7, r3
 355 001a 1A78     		ldrb	r2, [r3]
 356 001c 0E23     		mov	r3, #14
 357 001e FB18     		add	r3, r7, r3
 358 0020 7A49     		ldr	r1, .L29+4
 359 0022 8A5C     		ldrb	r2, [r1, r2]
 360 0024 1A70     		strb	r2, [r3]
 362:.\Generated_Source\PSoC4/CapSense_CSHL.c ****     
 363:.\Generated_Source\PSoC4/CapSense_CSHL.c ****     #if (CapSense_TOTAL_GENERICS_COUNT)
 364:.\Generated_Source\PSoC4/CapSense_CSHL.c ****         /* Exclude generic widget */
 365:.\Generated_Source\PSoC4/CapSense_CSHL.c ****         if(widget < CapSense_END_OF_WIDGETS_INDEX)
 366:.\Generated_Source\PSoC4/CapSense_CSHL.c ****         {
 367:.\Generated_Source\PSoC4/CapSense_CSHL.c ****     #endif  /* CapSense_TOTAL_GENERICS_COUNT */
 368:.\Generated_Source\PSoC4/CapSense_CSHL.c ****     
 369:.\Generated_Source\PSoC4/CapSense_CSHL.c ****     filteredRawData = CapSense_sensorRaw[sensor];
 361              		.loc 1 369 0
 362 0026 1023     		mov	r3, #16
 363 0028 FB18     		add	r3, r7, r3
 364 002a 794A     		ldr	r2, .L29+8
ARM GAS  C:\Users\sunyi\AppData\Local\Temp\ccDxWxH0.s 			page 14


 365 002c 7968     		ldr	r1, [r7, #4]
 366 002e 4900     		lsl	r1, r1, #1
 367 0030 8A5A     		ldrh	r2, [r1, r2]
 368 0032 1A80     		strh	r2, [r3]
 370:.\Generated_Source\PSoC4/CapSense_CSHL.c **** 
 371:.\Generated_Source\PSoC4/CapSense_CSHL.c **** 	#if (CapSense_RAW_FILTER_MASK != 0u)
 372:.\Generated_Source\PSoC4/CapSense_CSHL.c **** 	if(CapSense_enableRawFilters != 0u)
 369              		.loc 1 372 0
 370 0034 774B     		ldr	r3, .L29+12
 371 0036 1B78     		ldrb	r3, [r3]
 372 0038 002B     		cmp	r3, #0
 373 003a 15D0     		beq	.L17
 373:.\Generated_Source\PSoC4/CapSense_CSHL.c **** 	{
 374:.\Generated_Source\PSoC4/CapSense_CSHL.c **** 		#if (CapSense_RAW_FILTER_MASK & CapSense_MEDIAN_FILTER)
 375:.\Generated_Source\PSoC4/CapSense_CSHL.c **** 			tempRaw = filteredRawData;
 376:.\Generated_Source\PSoC4/CapSense_CSHL.c **** 			filteredRawData = CapSense_MedianFilter(filteredRawData, CapSense_rawFilterData1[sensor], 
 377:.\Generated_Source\PSoC4/CapSense_CSHL.c **** 															CapSense_rawFilterData2[sensor]);
 378:.\Generated_Source\PSoC4/CapSense_CSHL.c **** 			CapSense_rawFilterData2[sensor] = CapSense_rawFilterData1[sensor];
 379:.\Generated_Source\PSoC4/CapSense_CSHL.c **** 			CapSense_rawFilterData1[sensor] = tempRaw;
 380:.\Generated_Source\PSoC4/CapSense_CSHL.c **** 			
 381:.\Generated_Source\PSoC4/CapSense_CSHL.c **** 		#elif (CapSense_RAW_FILTER_MASK & CapSense_AVERAGING_FILTER)
 382:.\Generated_Source\PSoC4/CapSense_CSHL.c **** 			tempRaw = filteredRawData;
 383:.\Generated_Source\PSoC4/CapSense_CSHL.c **** 			filteredRawData = CapSense_AveragingFilter(filteredRawData, CapSense_rawFilterData1[sensor],
 384:.\Generated_Source\PSoC4/CapSense_CSHL.c **** 															   CapSense_rawFilterData2[sensor]);
 385:.\Generated_Source\PSoC4/CapSense_CSHL.c **** 			CapSense_rawFilterData2[sensor] = CapSense_rawFilterData1[sensor];
 386:.\Generated_Source\PSoC4/CapSense_CSHL.c **** 			CapSense_rawFilterData1[sensor] = tempRaw;
 387:.\Generated_Source\PSoC4/CapSense_CSHL.c **** 			
 388:.\Generated_Source\PSoC4/CapSense_CSHL.c **** 		#elif (CapSense_RAW_FILTER_MASK & CapSense_IIR2_FILTER)
 389:.\Generated_Source\PSoC4/CapSense_CSHL.c **** 			filteredRawData = CapSense_IIR2Filter(filteredRawData, CapSense_rawFilterData1[sensor]);
 390:.\Generated_Source\PSoC4/CapSense_CSHL.c **** 			CapSense_rawFilterData1[sensor] = filteredRawData;
 391:.\Generated_Source\PSoC4/CapSense_CSHL.c **** 			
 392:.\Generated_Source\PSoC4/CapSense_CSHL.c **** 		#elif (CapSense_RAW_FILTER_MASK & CapSense_IIR4_FILTER)
 393:.\Generated_Source\PSoC4/CapSense_CSHL.c **** 			filteredRawData = CapSense_IIR4Filter(filteredRawData, CapSense_rawFilterData1[sensor]);
 374              		.loc 1 393 0
 375 003c 764B     		ldr	r3, .L29+16
 376 003e 7A68     		ldr	r2, [r7, #4]
 377 0040 5200     		lsl	r2, r2, #1
 378 0042 D25A     		ldrh	r2, [r2, r3]
 379 0044 1023     		mov	r3, #16
 380 0046 FC18     		add	r4, r7, r3
 381 0048 1023     		mov	r3, #16
 382 004a FB18     		add	r3, r7, r3
 383 004c 1B88     		ldrh	r3, [r3]
 384 004e 181C     		mov	r0, r3
 385 0050 111C     		mov	r1, r2
 386 0052 FFF7FEFF 		bl	CapSense_IIR4Filter
 387 0056 031C     		mov	r3, r0
 388 0058 2380     		strh	r3, [r4]
 394:.\Generated_Source\PSoC4/CapSense_CSHL.c **** 			CapSense_rawFilterData1[sensor] = filteredRawData;
 389              		.loc 1 394 0
 390 005a 6F4B     		ldr	r3, .L29+16
 391 005c 7A68     		ldr	r2, [r7, #4]
 392 005e 5200     		lsl	r2, r2, #1
 393 0060 1021     		mov	r1, #16
 394 0062 7918     		add	r1, r7, r1
 395 0064 0988     		ldrh	r1, [r1]
 396 0066 D152     		strh	r1, [r2, r3]
ARM GAS  C:\Users\sunyi\AppData\Local\Temp\ccDxWxH0.s 			page 15


 397              	.L17:
 395:.\Generated_Source\PSoC4/CapSense_CSHL.c **** 				
 396:.\Generated_Source\PSoC4/CapSense_CSHL.c **** 		#elif (CapSense_RAW_FILTER_MASK & CapSense_JITTER_FILTER)
 397:.\Generated_Source\PSoC4/CapSense_CSHL.c **** 			filteredRawData = CapSense_JitterFilter(filteredRawData, CapSense_rawFilterData1[sensor]);
 398:.\Generated_Source\PSoC4/CapSense_CSHL.c **** 			CapSense_rawFilterData1[sensor] = filteredRawData;
 399:.\Generated_Source\PSoC4/CapSense_CSHL.c **** 			
 400:.\Generated_Source\PSoC4/CapSense_CSHL.c **** 		#elif (CapSense_RAW_FILTER_MASK & CapSense_IIR8_FILTER)
 401:.\Generated_Source\PSoC4/CapSense_CSHL.c **** 			filteredRawData = CapSense_IIR8Filter(filteredRawData, CapSense_rawFilterData1[sensor]);
 402:.\Generated_Source\PSoC4/CapSense_CSHL.c **** 			CapSense_rawFilterData1[sensor] = filteredRawData;
 403:.\Generated_Source\PSoC4/CapSense_CSHL.c **** 			
 404:.\Generated_Source\PSoC4/CapSense_CSHL.c **** 		#elif (CapSense_RAW_FILTER_MASK & CapSense_IIR16_FILTER)
 405:.\Generated_Source\PSoC4/CapSense_CSHL.c **** 			filteredRawData = CapSense_IIR16Filter(filteredRawData, CapSense_rawFilterData1[sensor]);
 406:.\Generated_Source\PSoC4/CapSense_CSHL.c **** 			CapSense_rawFilterData1[sensor] = filteredRawData;
 407:.\Generated_Source\PSoC4/CapSense_CSHL.c **** 			
 408:.\Generated_Source\PSoC4/CapSense_CSHL.c **** 		#else
 409:.\Generated_Source\PSoC4/CapSense_CSHL.c **** 			/* No Raw filters */
 410:.\Generated_Source\PSoC4/CapSense_CSHL.c **** 		#endif  /* (CapSense_RAW_FILTER_MASK & CapSense_MEDIAN_FILTER) */
 411:.\Generated_Source\PSoC4/CapSense_CSHL.c **** 	}
 412:.\Generated_Source\PSoC4/CapSense_CSHL.c **** 	#endif  /* (CapSense_RAW_FILTER_MASK != 0u) */
 413:.\Generated_Source\PSoC4/CapSense_CSHL.c **** 	
 414:.\Generated_Source\PSoC4/CapSense_CSHL.c **** 	#if (CapSense_TUNING_METHOD == CapSense__TUNING_AUTO)
 415:.\Generated_Source\PSoC4/CapSense_CSHL.c **** 	    MeasureNoiseEnvelope_P4_v2_20(&CapSense_config, (uint8)sensor, CapSense_sensorRaw);
 398              		.loc 1 415 0
 399 0068 7B68     		ldr	r3, [r7, #4]
 400 006a DAB2     		uxtb	r2, r3
 401 006c 6B49     		ldr	r1, .L29+20
 402 006e 684B     		ldr	r3, .L29+8
 403 0070 081C     		mov	r0, r1
 404 0072 111C     		mov	r1, r2
 405 0074 1A1C     		mov	r2, r3
 406 0076 FFF7FEFF 		bl	MeasureNoiseEnvelope_P4_v2_20
 416:.\Generated_Source\PSoC4/CapSense_CSHL.c **** 	#endif /* (CapSense_TUNING_METHOD == CapSense__TUNING_AUTO) */
 417:.\Generated_Source\PSoC4/CapSense_CSHL.c **** 
 418:.\Generated_Source\PSoC4/CapSense_CSHL.c ****     /* Baseline calculation */
 419:.\Generated_Source\PSoC4/CapSense_CSHL.c ****     /* Calculate difference RawData[cur] - Baseline[prev] */
 420:.\Generated_Source\PSoC4/CapSense_CSHL.c ****     if(filteredRawData >= CapSense_sensorBaseline[sensor])
 407              		.loc 1 420 0
 408 007a 694B     		ldr	r3, .L29+24
 409 007c 7A68     		ldr	r2, [r7, #4]
 410 007e 5200     		lsl	r2, r2, #1
 411 0080 D35A     		ldrh	r3, [r2, r3]
 412 0082 1022     		mov	r2, #16
 413 0084 BA18     		add	r2, r7, r2
 414 0086 1288     		ldrh	r2, [r2]
 415 0088 9A42     		cmp	r2, r3
 416 008a 12D3     		bcc	.L18
 421:.\Generated_Source\PSoC4/CapSense_CSHL.c ****     {
 422:.\Generated_Source\PSoC4/CapSense_CSHL.c **** 		CapSense_lowBaselineResetCnt[sensor] = 0u;	
 417              		.loc 1 422 0
 418 008c 654A     		ldr	r2, .L29+28
 419 008e 7B68     		ldr	r3, [r7, #4]
 420 0090 D318     		add	r3, r2, r3
 421 0092 0022     		mov	r2, #0
 422 0094 1A70     		strb	r2, [r3]
 423:.\Generated_Source\PSoC4/CapSense_CSHL.c ****         tempRaw = filteredRawData - CapSense_sensorBaseline[sensor];
 423              		.loc 1 423 0
 424 0096 624B     		ldr	r3, .L29+24
ARM GAS  C:\Users\sunyi\AppData\Local\Temp\ccDxWxH0.s 			page 16


 425 0098 7A68     		ldr	r2, [r7, #4]
 426 009a 5200     		lsl	r2, r2, #1
 427 009c D25A     		ldrh	r2, [r2, r3]
 428 009e 1223     		mov	r3, #18
 429 00a0 FB18     		add	r3, r7, r3
 430 00a2 1021     		mov	r1, #16
 431 00a4 7918     		add	r1, r7, r1
 432 00a6 0988     		ldrh	r1, [r1]
 433 00a8 8A1A     		sub	r2, r1, r2
 434 00aa 1A80     		strh	r2, [r3]
 424:.\Generated_Source\PSoC4/CapSense_CSHL.c ****         sign = 1u;    /* Positive difference - Calculate the Signal */
 435              		.loc 1 424 0
 436 00ac 0123     		mov	r3, #1
 437 00ae 7B61     		str	r3, [r7, #20]
 438 00b0 0CE0     		b	.L19
 439              	.L18:
 425:.\Generated_Source\PSoC4/CapSense_CSHL.c ****     }
 426:.\Generated_Source\PSoC4/CapSense_CSHL.c ****     else
 427:.\Generated_Source\PSoC4/CapSense_CSHL.c ****     {
 428:.\Generated_Source\PSoC4/CapSense_CSHL.c ****         tempRaw = CapSense_sensorBaseline[sensor] - filteredRawData;
 440              		.loc 1 428 0
 441 00b2 5B4B     		ldr	r3, .L29+24
 442 00b4 7A68     		ldr	r2, [r7, #4]
 443 00b6 5200     		lsl	r2, r2, #1
 444 00b8 D15A     		ldrh	r1, [r2, r3]
 445 00ba 1223     		mov	r3, #18
 446 00bc FB18     		add	r3, r7, r3
 447 00be 1022     		mov	r2, #16
 448 00c0 BA18     		add	r2, r7, r2
 449 00c2 1288     		ldrh	r2, [r2]
 450 00c4 8A1A     		sub	r2, r1, r2
 451 00c6 1A80     		strh	r2, [r3]
 429:.\Generated_Source\PSoC4/CapSense_CSHL.c ****         sign = 0u;    /* Negative difference - Do NOT calculate the Signal */
 452              		.loc 1 429 0
 453 00c8 0023     		mov	r3, #0
 454 00ca 7B61     		str	r3, [r7, #20]
 455              	.L19:
 430:.\Generated_Source\PSoC4/CapSense_CSHL.c ****     }
 431:.\Generated_Source\PSoC4/CapSense_CSHL.c **** 
 432:.\Generated_Source\PSoC4/CapSense_CSHL.c **** 	#if (CapSense_TUNING_METHOD != CapSense__TUNING_NONE)
 433:.\Generated_Source\PSoC4/CapSense_CSHL.c **** 	if((sign == 0u) && (tempRaw > (uint16) CapSense_negativeNoiseThreshold[widget]))
 456              		.loc 1 433 0
 457 00cc 7B69     		ldr	r3, [r7, #20]
 458 00ce 002B     		cmp	r3, #0
 459 00d0 2AD1     		bne	.L20
 460              		.loc 1 433 0 is_stmt 0 discriminator 1
 461 00d2 0F23     		mov	r3, #15
 462 00d4 FB18     		add	r3, r7, r3
 463 00d6 1B78     		ldrb	r3, [r3]
 464 00d8 534A     		ldr	r2, .L29+32
 465 00da D35C     		ldrb	r3, [r2, r3]
 466 00dc 9BB2     		uxth	r3, r3
 467 00de 1222     		mov	r2, #18
 468 00e0 BA18     		add	r2, r7, r2
 469 00e2 1288     		ldrh	r2, [r2]
 470 00e4 9A42     		cmp	r2, r3
 471 00e6 1FD9     		bls	.L20
ARM GAS  C:\Users\sunyi\AppData\Local\Temp\ccDxWxH0.s 			page 17


 434:.\Generated_Source\PSoC4/CapSense_CSHL.c **** 	#else
 435:.\Generated_Source\PSoC4/CapSense_CSHL.c **** 	if((sign == 0u) && (tempRaw > (uint16) CapSense_NEGATIVE_NOISE_THRESHOLD))
 436:.\Generated_Source\PSoC4/CapSense_CSHL.c **** 	#endif /* (CapSense_TUNING_METHOD != CapSense__TUNING_NONE) */ 
 437:.\Generated_Source\PSoC4/CapSense_CSHL.c ****     {
 438:.\Generated_Source\PSoC4/CapSense_CSHL.c ****         if(CapSense_lowBaselineResetCnt[sensor] >= CapSense_lowBaselineReset[sensor])
 472              		.loc 1 438 0 is_stmt 1
 473 00e8 4E4A     		ldr	r2, .L29+28
 474 00ea 7B68     		ldr	r3, [r7, #4]
 475 00ec D318     		add	r3, r2, r3
 476 00ee 1A78     		ldrb	r2, [r3]
 477 00f0 4E49     		ldr	r1, .L29+36
 478 00f2 7B68     		ldr	r3, [r7, #4]
 479 00f4 CB18     		add	r3, r1, r3
 480 00f6 1B78     		ldrb	r3, [r3]
 481 00f8 9A42     		cmp	r2, r3
 482 00fa 09D3     		bcc	.L21
 439:.\Generated_Source\PSoC4/CapSense_CSHL.c ****         {
 440:.\Generated_Source\PSoC4/CapSense_CSHL.c ****             CapSense_BaseInit(sensor);
 483              		.loc 1 440 0
 484 00fc 7B68     		ldr	r3, [r7, #4]
 485 00fe 181C     		mov	r0, r3
 486 0100 FFF7FEFF 		bl	CapSense_BaseInit
 441:.\Generated_Source\PSoC4/CapSense_CSHL.c ****             CapSense_lowBaselineResetCnt[sensor] = 0u;
 487              		.loc 1 441 0
 488 0104 474A     		ldr	r2, .L29+28
 489 0106 7B68     		ldr	r3, [r7, #4]
 490 0108 D318     		add	r3, r2, r3
 491 010a 0022     		mov	r2, #0
 492 010c 1A70     		strb	r2, [r3]
 438:.\Generated_Source\PSoC4/CapSense_CSHL.c ****         {
 493              		.loc 1 438 0
 494 010e 51E0     		b	.L23
 495              	.L21:
 442:.\Generated_Source\PSoC4/CapSense_CSHL.c ****         }
 443:.\Generated_Source\PSoC4/CapSense_CSHL.c ****         else
 444:.\Generated_Source\PSoC4/CapSense_CSHL.c ****         {
 445:.\Generated_Source\PSoC4/CapSense_CSHL.c ****             CapSense_lowBaselineResetCnt[sensor]++;
 496              		.loc 1 445 0
 497 0110 444A     		ldr	r2, .L29+28
 498 0112 7B68     		ldr	r3, [r7, #4]
 499 0114 D318     		add	r3, r2, r3
 500 0116 1B78     		ldrb	r3, [r3]
 501 0118 0133     		add	r3, r3, #1
 502 011a D9B2     		uxtb	r1, r3
 503 011c 414A     		ldr	r2, .L29+28
 504 011e 7B68     		ldr	r3, [r7, #4]
 505 0120 D318     		add	r3, r2, r3
 506 0122 0A1C     		add	r2, r1, #0
 507 0124 1A70     		strb	r2, [r3]
 438:.\Generated_Source\PSoC4/CapSense_CSHL.c ****         {
 508              		.loc 1 438 0
 509 0126 45E0     		b	.L23
 510              	.L20:
 446:.\Generated_Source\PSoC4/CapSense_CSHL.c ****         }
 447:.\Generated_Source\PSoC4/CapSense_CSHL.c ****     }
 448:.\Generated_Source\PSoC4/CapSense_CSHL.c ****     else
 449:.\Generated_Source\PSoC4/CapSense_CSHL.c ****     {
ARM GAS  C:\Users\sunyi\AppData\Local\Temp\ccDxWxH0.s 			page 18


 450:.\Generated_Source\PSoC4/CapSense_CSHL.c ****         #if (CapSense_AUTO_RESET == CapSense_AUTO_RESET_DISABLE)
 451:.\Generated_Source\PSoC4/CapSense_CSHL.c **** 		#if (CapSense_TUNING_METHOD != CapSense__TUNING_NONE)			
 452:.\Generated_Source\PSoC4/CapSense_CSHL.c **** 			/* Update Baseline if lower than noiseThreshold */
 453:.\Generated_Source\PSoC4/CapSense_CSHL.c **** 			if ( (tempRaw <= noiseThreshold) || 
 511              		.loc 1 453 0
 512 0128 0E23     		mov	r3, #14
 513 012a FB18     		add	r3, r7, r3
 514 012c 1B78     		ldrb	r3, [r3]
 515 012e 9BB2     		uxth	r3, r3
 516 0130 1222     		mov	r2, #18
 517 0132 BA18     		add	r2, r7, r2
 518 0134 1288     		ldrh	r2, [r2]
 519 0136 9A42     		cmp	r2, r3
 520 0138 0DD9     		bls	.L24
 454:.\Generated_Source\PSoC4/CapSense_CSHL.c **** 			 ((tempRaw < (uint16) CapSense_negativeNoiseThreshold[widget])
 521              		.loc 1 454 0 discriminator 1
 522 013a 0F23     		mov	r3, #15
 523 013c FB18     		add	r3, r7, r3
 524 013e 1B78     		ldrb	r3, [r3]
 525 0140 394A     		ldr	r2, .L29+32
 526 0142 D35C     		ldrb	r3, [r2, r3]
 527 0144 9BB2     		uxth	r3, r3
 453:.\Generated_Source\PSoC4/CapSense_CSHL.c **** 			 ((tempRaw < (uint16) CapSense_negativeNoiseThreshold[widget])
 528              		.loc 1 453 0 discriminator 1
 529 0146 1222     		mov	r2, #18
 530 0148 BA18     		add	r2, r7, r2
 531 014a 1288     		ldrh	r2, [r2]
 532 014c 9A42     		cmp	r2, r3
 533 014e 31D2     		bcs	.L23
 455:.\Generated_Source\PSoC4/CapSense_CSHL.c **** 			   && (sign == 0u)))
 534              		.loc 1 455 0
 535 0150 7B69     		ldr	r3, [r7, #20]
 536 0152 002B     		cmp	r3, #0
 537 0154 2ED1     		bne	.L23
 538              	.L24:
 456:.\Generated_Source\PSoC4/CapSense_CSHL.c **** 			{
 457:.\Generated_Source\PSoC4/CapSense_CSHL.c **** 		#else
 458:.\Generated_Source\PSoC4/CapSense_CSHL.c **** 			/* Update Baseline if lower than noiseThreshold */
 459:.\Generated_Source\PSoC4/CapSense_CSHL.c **** 			if ( (tempRaw <= noiseThreshold) || 
 460:.\Generated_Source\PSoC4/CapSense_CSHL.c **** 				 ((tempRaw < (uint16) CapSense_NEGATIVE_NOISE_THRESHOLD)
 461:.\Generated_Source\PSoC4/CapSense_CSHL.c **** 				   && (sign == 0u)))
 462:.\Generated_Source\PSoC4/CapSense_CSHL.c **** 			{
 463:.\Generated_Source\PSoC4/CapSense_CSHL.c **** 		#endif /* (CapSense_TUNING_METHOD != CapSense__TUNING_NONE) */ 
 464:.\Generated_Source\PSoC4/CapSense_CSHL.c ****         #endif /* (CapSense_AUTO_RESET == CapSense_AUTO_RESET_DISABLE) */
 465:.\Generated_Source\PSoC4/CapSense_CSHL.c ****                 /* Make full Baseline 23 bits */
 466:.\Generated_Source\PSoC4/CapSense_CSHL.c ****                 calc = (uint32) CapSense_sensorBaseline[sensor] << 8u;
 539              		.loc 1 466 0
 540 0156 324B     		ldr	r3, .L29+24
 541 0158 7A68     		ldr	r2, [r7, #4]
 542 015a 5200     		lsl	r2, r2, #1
 543 015c D35A     		ldrh	r3, [r2, r3]
 544 015e 1B02     		lsl	r3, r3, #8
 545 0160 BB60     		str	r3, [r7, #8]
 467:.\Generated_Source\PSoC4/CapSense_CSHL.c ****                 calc |= (uint32) CapSense_sensorBaselineLow[sensor];
 546              		.loc 1 467 0
 547 0162 334A     		ldr	r2, .L29+40
 548 0164 7B68     		ldr	r3, [r7, #4]
ARM GAS  C:\Users\sunyi\AppData\Local\Temp\ccDxWxH0.s 			page 19


 549 0166 D318     		add	r3, r2, r3
 550 0168 1B78     		ldrb	r3, [r3]
 551 016a 1A1C     		mov	r2, r3
 552 016c BB68     		ldr	r3, [r7, #8]
 553 016e 1343     		orr	r3, r2
 554 0170 BB60     		str	r3, [r7, #8]
 468:.\Generated_Source\PSoC4/CapSense_CSHL.c **** 
 469:.\Generated_Source\PSoC4/CapSense_CSHL.c ****                 /* Add Raw Data to Baseline */
 470:.\Generated_Source\PSoC4/CapSense_CSHL.c ****                 calc += filteredRawData;
 555              		.loc 1 470 0
 556 0172 1023     		mov	r3, #16
 557 0174 FB18     		add	r3, r7, r3
 558 0176 1B88     		ldrh	r3, [r3]
 559 0178 BA68     		ldr	r2, [r7, #8]
 560 017a D318     		add	r3, r2, r3
 561 017c BB60     		str	r3, [r7, #8]
 471:.\Generated_Source\PSoC4/CapSense_CSHL.c **** 
 472:.\Generated_Source\PSoC4/CapSense_CSHL.c ****                 /* Sub the high Baseline */
 473:.\Generated_Source\PSoC4/CapSense_CSHL.c ****                 calc -= CapSense_sensorBaseline[sensor];
 562              		.loc 1 473 0
 563 017e 284B     		ldr	r3, .L29+24
 564 0180 7A68     		ldr	r2, [r7, #4]
 565 0182 5200     		lsl	r2, r2, #1
 566 0184 D35A     		ldrh	r3, [r2, r3]
 567 0186 1A1C     		mov	r2, r3
 568 0188 BB68     		ldr	r3, [r7, #8]
 569 018a 9B1A     		sub	r3, r3, r2
 570 018c BB60     		str	r3, [r7, #8]
 474:.\Generated_Source\PSoC4/CapSense_CSHL.c **** 
 475:.\Generated_Source\PSoC4/CapSense_CSHL.c ****                 /* Put Baseline and BaselineLow */
 476:.\Generated_Source\PSoC4/CapSense_CSHL.c ****                 CapSense_sensorBaseline[sensor] = ((uint16) (calc >> 8u));
 571              		.loc 1 476 0
 572 018e BB68     		ldr	r3, [r7, #8]
 573 0190 1B0A     		lsr	r3, r3, #8
 574 0192 99B2     		uxth	r1, r3
 575 0194 224B     		ldr	r3, .L29+24
 576 0196 7A68     		ldr	r2, [r7, #4]
 577 0198 5200     		lsl	r2, r2, #1
 578 019a D152     		strh	r1, [r2, r3]
 477:.\Generated_Source\PSoC4/CapSense_CSHL.c ****                 CapSense_sensorBaselineLow[sensor] = ((uint8) calc);
 579              		.loc 1 477 0
 580 019c BB68     		ldr	r3, [r7, #8]
 581 019e D9B2     		uxtb	r1, r3
 582 01a0 234A     		ldr	r2, .L29+40
 583 01a2 7B68     		ldr	r3, [r7, #4]
 584 01a4 D318     		add	r3, r2, r3
 585 01a6 0A1C     		add	r2, r1, #0
 586 01a8 1A70     		strb	r2, [r3]
 478:.\Generated_Source\PSoC4/CapSense_CSHL.c **** 
 479:.\Generated_Source\PSoC4/CapSense_CSHL.c ****                 CapSense_lowBaselineResetCnt[sensor] = 0u;
 587              		.loc 1 479 0
 588 01aa 1E4A     		ldr	r2, .L29+28
 589 01ac 7B68     		ldr	r3, [r7, #4]
 590 01ae D318     		add	r3, r2, r3
 591 01b0 0022     		mov	r2, #0
 592 01b2 1A70     		strb	r2, [r3]
 593              	.L23:
ARM GAS  C:\Users\sunyi\AppData\Local\Temp\ccDxWxH0.s 			page 20


 480:.\Generated_Source\PSoC4/CapSense_CSHL.c ****         #if (CapSense_AUTO_RESET == CapSense_AUTO_RESET_DISABLE)
 481:.\Generated_Source\PSoC4/CapSense_CSHL.c ****             }
 482:.\Generated_Source\PSoC4/CapSense_CSHL.c ****         #endif /* (CapSense_AUTO_RESET == CapSense_AUTO_RESET_DISABLE) */
 483:.\Generated_Source\PSoC4/CapSense_CSHL.c ****     }
 484:.\Generated_Source\PSoC4/CapSense_CSHL.c **** 
 485:.\Generated_Source\PSoC4/CapSense_CSHL.c ****     /* Calculate Signal if positive difference > noiseThreshold */
 486:.\Generated_Source\PSoC4/CapSense_CSHL.c ****     if((tempRaw > (uint16) noiseThreshold) && (sign != 0u))
 594              		.loc 1 486 0
 595 01b4 0E23     		mov	r3, #14
 596 01b6 FB18     		add	r3, r7, r3
 597 01b8 1B78     		ldrb	r3, [r3]
 598 01ba 9BB2     		uxth	r3, r3
 599 01bc 1222     		mov	r2, #18
 600 01be BA18     		add	r2, r7, r2
 601 01c0 1288     		ldrh	r2, [r2]
 602 01c2 9A42     		cmp	r2, r3
 603 01c4 17D9     		bls	.L25
 604              		.loc 1 486 0 is_stmt 0 discriminator 1
 605 01c6 7B69     		ldr	r3, [r7, #20]
 606 01c8 002B     		cmp	r3, #0
 607 01ca 14D0     		beq	.L25
 487:.\Generated_Source\PSoC4/CapSense_CSHL.c ****     {
 488:.\Generated_Source\PSoC4/CapSense_CSHL.c ****         #if (CapSense_SIGNAL_SIZE == CapSense_SIGNAL_SIZE_UINT8)
 489:.\Generated_Source\PSoC4/CapSense_CSHL.c ****             /* Over flow defence for uint8 */
 490:.\Generated_Source\PSoC4/CapSense_CSHL.c ****             if (tempRaw > 0xFFu)
 608              		.loc 1 490 0 is_stmt 1
 609 01cc 1223     		mov	r3, #18
 610 01ce FB18     		add	r3, r7, r3
 611 01d0 1B88     		ldrh	r3, [r3]
 612 01d2 FF2B     		cmp	r3, #255
 613 01d4 05D9     		bls	.L26
 491:.\Generated_Source\PSoC4/CapSense_CSHL.c ****             {
 492:.\Generated_Source\PSoC4/CapSense_CSHL.c ****                 CapSense_sensorSignal[sensor] = 0xFFu;
 614              		.loc 1 492 0
 615 01d6 174A     		ldr	r2, .L29+44
 616 01d8 7B68     		ldr	r3, [r7, #4]
 617 01da D318     		add	r3, r2, r3
 618 01dc FF22     		mov	r2, #255
 619 01de 1A70     		strb	r2, [r3]
 490:.\Generated_Source\PSoC4/CapSense_CSHL.c ****             {
 620              		.loc 1 490 0
 621 01e0 0EE0     		b	.L16
 622              	.L26:
 493:.\Generated_Source\PSoC4/CapSense_CSHL.c ****             }    
 494:.\Generated_Source\PSoC4/CapSense_CSHL.c ****             else 
 495:.\Generated_Source\PSoC4/CapSense_CSHL.c ****             {
 496:.\Generated_Source\PSoC4/CapSense_CSHL.c ****                 CapSense_sensorSignal[sensor] = ((uint8) tempRaw);
 623              		.loc 1 496 0
 624 01e2 1223     		mov	r3, #18
 625 01e4 FB18     		add	r3, r7, r3
 626 01e6 1B88     		ldrh	r3, [r3]
 627 01e8 D9B2     		uxtb	r1, r3
 628 01ea 124A     		ldr	r2, .L29+44
 629 01ec 7B68     		ldr	r3, [r7, #4]
 630 01ee D318     		add	r3, r2, r3
 631 01f0 0A1C     		add	r2, r1, #0
 632 01f2 1A70     		strb	r2, [r3]
ARM GAS  C:\Users\sunyi\AppData\Local\Temp\ccDxWxH0.s 			page 21


 490:.\Generated_Source\PSoC4/CapSense_CSHL.c ****             {
 633              		.loc 1 490 0
 634 01f4 04E0     		b	.L16
 635              	.L25:
 497:.\Generated_Source\PSoC4/CapSense_CSHL.c ****             }
 498:.\Generated_Source\PSoC4/CapSense_CSHL.c ****         #else
 499:.\Generated_Source\PSoC4/CapSense_CSHL.c ****             CapSense_sensorSignal[sensor] = ((uint16) tempRaw);
 500:.\Generated_Source\PSoC4/CapSense_CSHL.c ****         #endif  /* (CapSense_SIGNAL_SIZE == CapSense_SIGNAL_SIZE_UINT8) */
 501:.\Generated_Source\PSoC4/CapSense_CSHL.c ****     }
 502:.\Generated_Source\PSoC4/CapSense_CSHL.c ****     else
 503:.\Generated_Source\PSoC4/CapSense_CSHL.c ****     {
 504:.\Generated_Source\PSoC4/CapSense_CSHL.c ****         /* Signal is zero */
 505:.\Generated_Source\PSoC4/CapSense_CSHL.c ****         CapSense_sensorSignal[sensor] = 0u;
 636              		.loc 1 505 0
 637 01f6 0F4A     		ldr	r2, .L29+44
 638 01f8 7B68     		ldr	r3, [r7, #4]
 639 01fa D318     		add	r3, r2, r3
 640 01fc 0022     		mov	r2, #0
 641 01fe 1A70     		strb	r2, [r3]
 642              	.L16:
 506:.\Generated_Source\PSoC4/CapSense_CSHL.c ****     }
 507:.\Generated_Source\PSoC4/CapSense_CSHL.c **** 
 508:.\Generated_Source\PSoC4/CapSense_CSHL.c ****     #if (CapSense_TOTAL_GENERICS_COUNT)
 509:.\Generated_Source\PSoC4/CapSense_CSHL.c ****         /* Exclude generic widget */
 510:.\Generated_Source\PSoC4/CapSense_CSHL.c ****         }
 511:.\Generated_Source\PSoC4/CapSense_CSHL.c ****     #endif  /* CapSense_TOTAL_GENERICS_COUNT */
 512:.\Generated_Source\PSoC4/CapSense_CSHL.c **** }
 643              		.loc 1 512 0
 644 0200 BD46     		mov	sp, r7
 645 0202 07B0     		add	sp, sp, #28
 646              		@ sp needed
 647 0204 90BD     		pop	{r4, r7, pc}
 648              	.L30:
 649 0206 C046     		.align	2
 650              	.L29:
 651 0208 00000000 		.word	CapSense_widgetNumber
 652 020c 00000000 		.word	CapSense_noiseThreshold
 653 0210 00000000 		.word	CapSense_sensorRaw
 654 0214 00000000 		.word	CapSense_enableRawFilters
 655 0218 00000000 		.word	CapSense_rawFilterData1
 656 021c 00000000 		.word	CapSense_config
 657 0220 00000000 		.word	CapSense_sensorBaseline
 658 0224 00000000 		.word	CapSense_lowBaselineResetCnt
 659 0228 00000000 		.word	CapSense_negativeNoiseThreshold
 660 022c 00000000 		.word	CapSense_lowBaselineReset
 661 0230 00000000 		.word	CapSense_sensorBaselineLow
 662 0234 00000000 		.word	CapSense_sensorSignal
 663              		.cfi_endproc
 664              	.LFE39:
 665              		.size	CapSense_UpdateBaselineNoThreshold, .-CapSense_UpdateBaselineNoThreshold
 666              		.section	.text.CapSense_UpdateSensorBaseline,"ax",%progbits
 667              		.align	2
 668              		.global	CapSense_UpdateSensorBaseline
 669              		.code	16
 670              		.thumb_func
 671              		.type	CapSense_UpdateSensorBaseline, %function
 672              	CapSense_UpdateSensorBaseline:
ARM GAS  C:\Users\sunyi\AppData\Local\Temp\ccDxWxH0.s 			page 22


 673              	.LFB40:
 513:.\Generated_Source\PSoC4/CapSense_CSHL.c **** 
 514:.\Generated_Source\PSoC4/CapSense_CSHL.c **** 
 515:.\Generated_Source\PSoC4/CapSense_CSHL.c **** /*******************************************************************************
 516:.\Generated_Source\PSoC4/CapSense_CSHL.c **** * Function Name: CapSense_UpdateSensorBaseline
 517:.\Generated_Source\PSoC4/CapSense_CSHL.c **** ********************************************************************************
 518:.\Generated_Source\PSoC4/CapSense_CSHL.c **** *
 519:.\Generated_Source\PSoC4/CapSense_CSHL.c **** * Summary:
 520:.\Generated_Source\PSoC4/CapSense_CSHL.c **** *  Updates the CapSense_sensorBaseline[sensor] array element using the 
 521:.\Generated_Source\PSoC4/CapSense_CSHL.c **** *  LP filter with k = 256. The signal calculates the difference of count by 
 522:.\Generated_Source\PSoC4/CapSense_CSHL.c **** *  subtracting the previous baseline from the current raw count value and stores
 523:.\Generated_Source\PSoC4/CapSense_CSHL.c **** *  it in CapSense_sensorSignal[sensor]. 
 524:.\Generated_Source\PSoC4/CapSense_CSHL.c **** *  If the auto reset option is enabled, the baseline updated regards the noise threshold. 
 525:.\Generated_Source\PSoC4/CapSense_CSHL.c **** *  If the auto reset option is disabled, the baseline stops updating. 
 526:.\Generated_Source\PSoC4/CapSense_CSHL.c **** *  Baseline is loaded with raw count value if a signal is greater than zero and  
 527:.\Generated_Source\PSoC4/CapSense_CSHL.c **** *  if signal is less than noise threshold.
 528:.\Generated_Source\PSoC4/CapSense_CSHL.c **** *  Raw data filters are applied to the values if enabled before baseline 
 529:.\Generated_Source\PSoC4/CapSense_CSHL.c **** *  calculation.
 530:.\Generated_Source\PSoC4/CapSense_CSHL.c **** *  This API updates the thresholds in the Smartsense Mode.
 531:.\Generated_Source\PSoC4/CapSense_CSHL.c **** *
 532:.\Generated_Source\PSoC4/CapSense_CSHL.c **** * Parameters:
 533:.\Generated_Source\PSoC4/CapSense_CSHL.c **** *  sensor:  Sensor number.
 534:.\Generated_Source\PSoC4/CapSense_CSHL.c **** *
 535:.\Generated_Source\PSoC4/CapSense_CSHL.c **** * Return:
 536:.\Generated_Source\PSoC4/CapSense_CSHL.c **** *  None
 537:.\Generated_Source\PSoC4/CapSense_CSHL.c **** *
 538:.\Generated_Source\PSoC4/CapSense_CSHL.c **** * Global Variables:
 539:.\Generated_Source\PSoC4/CapSense_CSHL.c **** *  CapSense_widgetNumber[]  - stores widget numbers.
 540:.\Generated_Source\PSoC4/CapSense_CSHL.c **** * 
 541:.\Generated_Source\PSoC4/CapSense_CSHL.c **** * Side Effects:
 542:.\Generated_Source\PSoC4/CapSense_CSHL.c **** *  None
 543:.\Generated_Source\PSoC4/CapSense_CSHL.c **** * 
 544:.\Generated_Source\PSoC4/CapSense_CSHL.c **** *******************************************************************************/
 545:.\Generated_Source\PSoC4/CapSense_CSHL.c ****  void CapSense_UpdateSensorBaseline(uint32 sensor)
 546:.\Generated_Source\PSoC4/CapSense_CSHL.c **** {
 674              		.loc 1 546 0
 675              		.cfi_startproc
 676 0000 80B5     		push	{r7, lr}
 677              		.cfi_def_cfa_offset 8
 678              		.cfi_offset 7, -8
 679              		.cfi_offset 14, -4
 680 0002 82B0     		sub	sp, sp, #8
 681              		.cfi_def_cfa_offset 16
 682 0004 00AF     		add	r7, sp, #0
 683              		.cfi_def_cfa_register 7
 684 0006 7860     		str	r0, [r7, #4]
 547:.\Generated_Source\PSoC4/CapSense_CSHL.c ****     #if (CapSense_TOTAL_GENERICS_COUNT)
 548:.\Generated_Source\PSoC4/CapSense_CSHL.c **** 		uint32 widget;
 549:.\Generated_Source\PSoC4/CapSense_CSHL.c **** 		
 550:.\Generated_Source\PSoC4/CapSense_CSHL.c **** 		widget = CapSense_widgetNumber[sensor];
 551:.\Generated_Source\PSoC4/CapSense_CSHL.c **** 	
 552:.\Generated_Source\PSoC4/CapSense_CSHL.c ****         /* Exclude generic widget */
 553:.\Generated_Source\PSoC4/CapSense_CSHL.c ****         if(widget < CapSense_END_OF_WIDGETS_INDEX)
 554:.\Generated_Source\PSoC4/CapSense_CSHL.c ****         {
 555:.\Generated_Source\PSoC4/CapSense_CSHL.c ****     #endif  /* CapSense_TOTAL_GENERICS_COUNT */
 556:.\Generated_Source\PSoC4/CapSense_CSHL.c **** 
 557:.\Generated_Source\PSoC4/CapSense_CSHL.c ****     #if (CapSense_TUNING_METHOD == CapSense__TUNING_AUTO)
ARM GAS  C:\Users\sunyi\AppData\Local\Temp\ccDxWxH0.s 			page 23


 558:.\Generated_Source\PSoC4/CapSense_CSHL.c ****     	CapSense_UpdateThresholds(sensor);
 685              		.loc 1 558 0
 686 0008 7B68     		ldr	r3, [r7, #4]
 687 000a 181C     		mov	r0, r3
 688 000c FFF7FEFF 		bl	CapSense_UpdateThresholds
 559:.\Generated_Source\PSoC4/CapSense_CSHL.c ****     #endif /* (CapSense_TUNING_METHOD == CapSense__TUNING_AUTO) */
 560:.\Generated_Source\PSoC4/CapSense_CSHL.c **** 
 561:.\Generated_Source\PSoC4/CapSense_CSHL.c ****     CapSense_UpdateBaselineNoThreshold(sensor);
 689              		.loc 1 561 0
 690 0010 7B68     		ldr	r3, [r7, #4]
 691 0012 181C     		mov	r0, r3
 692 0014 FFF7FEFF 		bl	CapSense_UpdateBaselineNoThreshold
 562:.\Generated_Source\PSoC4/CapSense_CSHL.c ****     
 563:.\Generated_Source\PSoC4/CapSense_CSHL.c ****     #if (CapSense_TOTAL_GENERICS_COUNT)
 564:.\Generated_Source\PSoC4/CapSense_CSHL.c ****         /* Exclude generic widget */
 565:.\Generated_Source\PSoC4/CapSense_CSHL.c ****         }
 566:.\Generated_Source\PSoC4/CapSense_CSHL.c ****     #endif  /* CapSense_TOTAL_GENERICS_COUNT */
 567:.\Generated_Source\PSoC4/CapSense_CSHL.c **** }
 693              		.loc 1 567 0
 694 0018 BD46     		mov	sp, r7
 695 001a 02B0     		add	sp, sp, #8
 696              		@ sp needed
 697 001c 80BD     		pop	{r7, pc}
 698              		.cfi_endproc
 699              	.LFE40:
 700              		.size	CapSense_UpdateSensorBaseline, .-CapSense_UpdateSensorBaseline
 701 001e C046     		.section	.text.CapSense_UpdateEnabledBaselines,"ax",%progbits
 702              		.align	2
 703              		.global	CapSense_UpdateEnabledBaselines
 704              		.code	16
 705              		.thumb_func
 706              		.type	CapSense_UpdateEnabledBaselines, %function
 707              	CapSense_UpdateEnabledBaselines:
 708              	.LFB41:
 568:.\Generated_Source\PSoC4/CapSense_CSHL.c **** 
 569:.\Generated_Source\PSoC4/CapSense_CSHL.c **** 
 570:.\Generated_Source\PSoC4/CapSense_CSHL.c **** /*******************************************************************************
 571:.\Generated_Source\PSoC4/CapSense_CSHL.c **** * Function Name: CapSense_UpdateEnabledBaselines
 572:.\Generated_Source\PSoC4/CapSense_CSHL.c **** ********************************************************************************
 573:.\Generated_Source\PSoC4/CapSense_CSHL.c **** *
 574:.\Generated_Source\PSoC4/CapSense_CSHL.c **** * Summary:
 575:.\Generated_Source\PSoC4/CapSense_CSHL.c **** *  Checks CapSense_sensorEnableMask[] array and calls the 
 576:.\Generated_Source\PSoC4/CapSense_CSHL.c **** *  CapSense_UpdateSensorBaseline function to update the baselines 
 577:.\Generated_Source\PSoC4/CapSense_CSHL.c **** *  for the enabled sensors.
 578:.\Generated_Source\PSoC4/CapSense_CSHL.c **** *
 579:.\Generated_Source\PSoC4/CapSense_CSHL.c **** * Parameters:
 580:.\Generated_Source\PSoC4/CapSense_CSHL.c **** *  None
 581:.\Generated_Source\PSoC4/CapSense_CSHL.c **** *
 582:.\Generated_Source\PSoC4/CapSense_CSHL.c **** * Return:
 583:.\Generated_Source\PSoC4/CapSense_CSHL.c **** *  None
 584:.\Generated_Source\PSoC4/CapSense_CSHL.c **** *
 585:.\Generated_Source\PSoC4/CapSense_CSHL.c **** * Global Variables:
 586:.\Generated_Source\PSoC4/CapSense_CSHL.c **** *  CapSense_sensorEnableMask[] - used to store the sensor scanning 
 587:.\Generated_Source\PSoC4/CapSense_CSHL.c **** *  state.
 588:.\Generated_Source\PSoC4/CapSense_CSHL.c **** *  CapSense_sensorEnableMask[0] contains the masked bits for sensors 
 589:.\Generated_Source\PSoC4/CapSense_CSHL.c **** *   0 through 7 (sensor 0 is bit 0, sensor 1 is bit 1).
 590:.\Generated_Source\PSoC4/CapSense_CSHL.c **** *  CapSense_sensorEnableMask[1] contains the masked bits for 
ARM GAS  C:\Users\sunyi\AppData\Local\Temp\ccDxWxH0.s 			page 24


 591:.\Generated_Source\PSoC4/CapSense_CSHL.c **** *  sensors 8 through 15 (if needed), and so on.
 592:.\Generated_Source\PSoC4/CapSense_CSHL.c **** *  0 - sensor doesn't scan by CapSense_ScanEnabledWidgets().
 593:.\Generated_Source\PSoC4/CapSense_CSHL.c **** *  1 - sensor scans by CapSense_ScanEnabledWidgets().
 594:.\Generated_Source\PSoC4/CapSense_CSHL.c **** * 
 595:.\Generated_Source\PSoC4/CapSense_CSHL.c **** * Side Effects:
 596:.\Generated_Source\PSoC4/CapSense_CSHL.c **** *  None
 597:.\Generated_Source\PSoC4/CapSense_CSHL.c **** * 
 598:.\Generated_Source\PSoC4/CapSense_CSHL.c **** *******************************************************************************/
 599:.\Generated_Source\PSoC4/CapSense_CSHL.c ****  void CapSense_UpdateEnabledBaselines(void)
 600:.\Generated_Source\PSoC4/CapSense_CSHL.c **** {
 709              		.loc 1 600 0
 710              		.cfi_startproc
 711 0000 80B5     		push	{r7, lr}
 712              		.cfi_def_cfa_offset 8
 713              		.cfi_offset 7, -8
 714              		.cfi_offset 14, -4
 715 0002 82B0     		sub	sp, sp, #8
 716              		.cfi_def_cfa_offset 16
 717 0004 00AF     		add	r7, sp, #0
 718              		.cfi_def_cfa_register 7
 601:.\Generated_Source\PSoC4/CapSense_CSHL.c ****     uint32 i;
 602:.\Generated_Source\PSoC4/CapSense_CSHL.c ****     uint32 isSensorEnabled;
 603:.\Generated_Source\PSoC4/CapSense_CSHL.c ****     
 604:.\Generated_Source\PSoC4/CapSense_CSHL.c ****     for(i = 0u; i < CapSense_TOTAL_SENSOR_COUNT; i++)
 719              		.loc 1 604 0
 720 0006 0023     		mov	r3, #0
 721 0008 7B60     		str	r3, [r7, #4]
 722 000a 11E0     		b	.L33
 723              	.L35:
 605:.\Generated_Source\PSoC4/CapSense_CSHL.c ****     {
 606:.\Generated_Source\PSoC4/CapSense_CSHL.c ****         isSensorEnabled = CapSense_GetBitValue(CapSense_sensorEnableMask, i);
 724              		.loc 1 606 0
 725 000c 0B4A     		ldr	r2, .L36
 726 000e 7B68     		ldr	r3, [r7, #4]
 727 0010 101C     		mov	r0, r2
 728 0012 191C     		mov	r1, r3
 729 0014 FFF7FEFF 		bl	CapSense_GetBitValue
 730 0018 031C     		mov	r3, r0
 731 001a 3B60     		str	r3, [r7]
 607:.\Generated_Source\PSoC4/CapSense_CSHL.c ****         
 608:.\Generated_Source\PSoC4/CapSense_CSHL.c ****         if(0u != isSensorEnabled)
 732              		.loc 1 608 0
 733 001c 3B68     		ldr	r3, [r7]
 734 001e 002B     		cmp	r3, #0
 735 0020 03D0     		beq	.L34
 609:.\Generated_Source\PSoC4/CapSense_CSHL.c ****         {
 610:.\Generated_Source\PSoC4/CapSense_CSHL.c ****             CapSense_UpdateSensorBaseline(i);
 736              		.loc 1 610 0
 737 0022 7B68     		ldr	r3, [r7, #4]
 738 0024 181C     		mov	r0, r3
 739 0026 FFF7FEFF 		bl	CapSense_UpdateSensorBaseline
 740              	.L34:
 604:.\Generated_Source\PSoC4/CapSense_CSHL.c ****     {
 741              		.loc 1 604 0 discriminator 2
 742 002a 7B68     		ldr	r3, [r7, #4]
 743 002c 0133     		add	r3, r3, #1
 744 002e 7B60     		str	r3, [r7, #4]
ARM GAS  C:\Users\sunyi\AppData\Local\Temp\ccDxWxH0.s 			page 25


 745              	.L33:
 604:.\Generated_Source\PSoC4/CapSense_CSHL.c ****     {
 746              		.loc 1 604 0 is_stmt 0 discriminator 1
 747 0030 7B68     		ldr	r3, [r7, #4]
 748 0032 042B     		cmp	r3, #4
 749 0034 EAD9     		bls	.L35
 611:.\Generated_Source\PSoC4/CapSense_CSHL.c ****         }
 612:.\Generated_Source\PSoC4/CapSense_CSHL.c ****     }
 613:.\Generated_Source\PSoC4/CapSense_CSHL.c **** }
 750              		.loc 1 613 0 is_stmt 1
 751 0036 BD46     		mov	sp, r7
 752 0038 02B0     		add	sp, sp, #8
 753              		@ sp needed
 754 003a 80BD     		pop	{r7, pc}
 755              	.L37:
 756              		.align	2
 757              	.L36:
 758 003c 00000000 		.word	CapSense_sensorEnableMask
 759              		.cfi_endproc
 760              	.LFE41:
 761              		.size	CapSense_UpdateEnabledBaselines, .-CapSense_UpdateEnabledBaselines
 762              		.section	.text.CapSense_UpdateWidgetBaseline,"ax",%progbits
 763              		.align	2
 764              		.global	CapSense_UpdateWidgetBaseline
 765              		.code	16
 766              		.thumb_func
 767              		.type	CapSense_UpdateWidgetBaseline, %function
 768              	CapSense_UpdateWidgetBaseline:
 769              	.LFB42:
 614:.\Generated_Source\PSoC4/CapSense_CSHL.c **** 
 615:.\Generated_Source\PSoC4/CapSense_CSHL.c **** /*******************************************************************************
 616:.\Generated_Source\PSoC4/CapSense_CSHL.c **** * Function Name: CapSense_UpdateWidgetBaseline
 617:.\Generated_Source\PSoC4/CapSense_CSHL.c **** ********************************************************************************
 618:.\Generated_Source\PSoC4/CapSense_CSHL.c **** *
 619:.\Generated_Source\PSoC4/CapSense_CSHL.c **** * Summary:
 620:.\Generated_Source\PSoC4/CapSense_CSHL.c **** *  Checks CapSense_sensorEnableMask[] array and calls the 
 621:.\Generated_Source\PSoC4/CapSense_CSHL.c **** *  CapSense_UpdateSensorBaseline function to update the baselines 
 622:.\Generated_Source\PSoC4/CapSense_CSHL.c **** *  for the enabled sensors that belong to widget.
 623:.\Generated_Source\PSoC4/CapSense_CSHL.c **** *
 624:.\Generated_Source\PSoC4/CapSense_CSHL.c **** * Parameters:
 625:.\Generated_Source\PSoC4/CapSense_CSHL.c **** *  widget:  Widget number.
 626:.\Generated_Source\PSoC4/CapSense_CSHL.c **** *
 627:.\Generated_Source\PSoC4/CapSense_CSHL.c **** * Return:
 628:.\Generated_Source\PSoC4/CapSense_CSHL.c **** *  None
 629:.\Generated_Source\PSoC4/CapSense_CSHL.c **** *
 630:.\Generated_Source\PSoC4/CapSense_CSHL.c **** * Global Variables:
 631:.\Generated_Source\PSoC4/CapSense_CSHL.c **** *  CapSense_sensorEnableMask[] - used to store the sensor scanning 
 632:.\Generated_Source\PSoC4/CapSense_CSHL.c **** *  state.
 633:.\Generated_Source\PSoC4/CapSense_CSHL.c **** *  CapSense_sensorEnableMask[0] contains the masked bits for sensors 
 634:.\Generated_Source\PSoC4/CapSense_CSHL.c **** *   0 through 7 (sensor 0 is bit 0, sensor 1 is bit 1).
 635:.\Generated_Source\PSoC4/CapSense_CSHL.c **** *  CapSense_sensorEnableMask[1] contains the masked bits for 
 636:.\Generated_Source\PSoC4/CapSense_CSHL.c **** *  sensors 8 through 15 (if needed), and so on.
 637:.\Generated_Source\PSoC4/CapSense_CSHL.c **** *  0 - sensor doesn't scan by CapSense_ScanEnabledWidgets().
 638:.\Generated_Source\PSoC4/CapSense_CSHL.c **** *  1 - sensor scans by CapSense_ScanEnabledWidgets().
 639:.\Generated_Source\PSoC4/CapSense_CSHL.c **** * 
 640:.\Generated_Source\PSoC4/CapSense_CSHL.c **** * Side Effects:
 641:.\Generated_Source\PSoC4/CapSense_CSHL.c **** *  None
ARM GAS  C:\Users\sunyi\AppData\Local\Temp\ccDxWxH0.s 			page 26


 642:.\Generated_Source\PSoC4/CapSense_CSHL.c **** * 
 643:.\Generated_Source\PSoC4/CapSense_CSHL.c **** *******************************************************************************/
 644:.\Generated_Source\PSoC4/CapSense_CSHL.c **** void CapSense_UpdateWidgetBaseline(uint32 widget)
 645:.\Generated_Source\PSoC4/CapSense_CSHL.c **** {
 770              		.loc 1 645 0
 771              		.cfi_startproc
 772 0000 80B5     		push	{r7, lr}
 773              		.cfi_def_cfa_offset 8
 774              		.cfi_offset 7, -8
 775              		.cfi_offset 14, -4
 776 0002 88B0     		sub	sp, sp, #32
 777              		.cfi_def_cfa_offset 40
 778 0004 00AF     		add	r7, sp, #0
 779              		.cfi_def_cfa_register 7
 780 0006 7860     		str	r0, [r7, #4]
 646:.\Generated_Source\PSoC4/CapSense_CSHL.c ****     uint32 sensorsPerWidget;
 647:.\Generated_Source\PSoC4/CapSense_CSHL.c ****     uint32 firstSensor;
 648:.\Generated_Source\PSoC4/CapSense_CSHL.c ****     uint32 lastSensor;
 649:.\Generated_Source\PSoC4/CapSense_CSHL.c ****     uint32 i;
 650:.\Generated_Source\PSoC4/CapSense_CSHL.c ****     uint32 isSensorEnabled;
 651:.\Generated_Source\PSoC4/CapSense_CSHL.c ****     
 652:.\Generated_Source\PSoC4/CapSense_CSHL.c **** 	/* Get number of sensors in widget */
 653:.\Generated_Source\PSoC4/CapSense_CSHL.c **** 	sensorsPerWidget = CapSense_numberOfSensors[widget];
 781              		.loc 1 653 0
 782 0008 0523     		mov	r3, #5
 783 000a BB61     		str	r3, [r7, #24]
 654:.\Generated_Source\PSoC4/CapSense_CSHL.c **** 
 655:.\Generated_Source\PSoC4/CapSense_CSHL.c **** 	/* Get first sensor in widget */
 656:.\Generated_Source\PSoC4/CapSense_CSHL.c **** 	firstSensor = CapSense_rawDataIndex[widget];
 784              		.loc 1 656 0
 785 000c 0023     		mov	r3, #0
 786 000e 7B61     		str	r3, [r7, #20]
 657:.\Generated_Source\PSoC4/CapSense_CSHL.c **** 	
 658:.\Generated_Source\PSoC4/CapSense_CSHL.c **** 	/* Get last sensor in widget */
 659:.\Generated_Source\PSoC4/CapSense_CSHL.c **** 	lastSensor = (CapSense_rawDataIndex[widget] + sensorsPerWidget);
 787              		.loc 1 659 0
 788 0010 0023     		mov	r3, #0
 789 0012 1A1C     		mov	r2, r3
 790 0014 BB69     		ldr	r3, [r7, #24]
 791 0016 D318     		add	r3, r2, r3
 792 0018 3B61     		str	r3, [r7, #16]
 660:.\Generated_Source\PSoC4/CapSense_CSHL.c **** 	
 661:.\Generated_Source\PSoC4/CapSense_CSHL.c ****     for(i = firstSensor; i < lastSensor; i++)
 793              		.loc 1 661 0
 794 001a 7B69     		ldr	r3, [r7, #20]
 795 001c FB61     		str	r3, [r7, #28]
 796 001e 11E0     		b	.L39
 797              	.L41:
 662:.\Generated_Source\PSoC4/CapSense_CSHL.c ****     {
 663:.\Generated_Source\PSoC4/CapSense_CSHL.c ****         isSensorEnabled = CapSense_GetBitValue(CapSense_sensorEnableMask, i);
 798              		.loc 1 663 0
 799 0020 0C4A     		ldr	r2, .L42
 800 0022 FB69     		ldr	r3, [r7, #28]
 801 0024 101C     		mov	r0, r2
 802 0026 191C     		mov	r1, r3
 803 0028 FFF7FEFF 		bl	CapSense_GetBitValue
 804 002c 031C     		mov	r3, r0
ARM GAS  C:\Users\sunyi\AppData\Local\Temp\ccDxWxH0.s 			page 27


 805 002e FB60     		str	r3, [r7, #12]
 664:.\Generated_Source\PSoC4/CapSense_CSHL.c ****         
 665:.\Generated_Source\PSoC4/CapSense_CSHL.c ****         if(0u != isSensorEnabled)
 806              		.loc 1 665 0
 807 0030 FB68     		ldr	r3, [r7, #12]
 808 0032 002B     		cmp	r3, #0
 809 0034 03D0     		beq	.L40
 666:.\Generated_Source\PSoC4/CapSense_CSHL.c ****         {
 667:.\Generated_Source\PSoC4/CapSense_CSHL.c ****             CapSense_UpdateSensorBaseline(i);
 810              		.loc 1 667 0
 811 0036 FB69     		ldr	r3, [r7, #28]
 812 0038 181C     		mov	r0, r3
 813 003a FFF7FEFF 		bl	CapSense_UpdateSensorBaseline
 814              	.L40:
 661:.\Generated_Source\PSoC4/CapSense_CSHL.c ****     {
 815              		.loc 1 661 0 discriminator 2
 816 003e FB69     		ldr	r3, [r7, #28]
 817 0040 0133     		add	r3, r3, #1
 818 0042 FB61     		str	r3, [r7, #28]
 819              	.L39:
 661:.\Generated_Source\PSoC4/CapSense_CSHL.c ****     {
 820              		.loc 1 661 0 is_stmt 0 discriminator 1
 821 0044 FA69     		ldr	r2, [r7, #28]
 822 0046 3B69     		ldr	r3, [r7, #16]
 823 0048 9A42     		cmp	r2, r3
 824 004a E9D3     		bcc	.L41
 668:.\Generated_Source\PSoC4/CapSense_CSHL.c ****         }
 669:.\Generated_Source\PSoC4/CapSense_CSHL.c ****     }
 670:.\Generated_Source\PSoC4/CapSense_CSHL.c **** }
 825              		.loc 1 670 0 is_stmt 1
 826 004c BD46     		mov	sp, r7
 827 004e 08B0     		add	sp, sp, #32
 828              		@ sp needed
 829 0050 80BD     		pop	{r7, pc}
 830              	.L43:
 831 0052 C046     		.align	2
 832              	.L42:
 833 0054 00000000 		.word	CapSense_sensorEnableMask
 834              		.cfi_endproc
 835              	.LFE42:
 836              		.size	CapSense_UpdateWidgetBaseline, .-CapSense_UpdateWidgetBaseline
 837              		.section	.text.CapSense_GetBaselineData,"ax",%progbits
 838              		.align	2
 839              		.global	CapSense_GetBaselineData
 840              		.code	16
 841              		.thumb_func
 842              		.type	CapSense_GetBaselineData, %function
 843              	CapSense_GetBaselineData:
 844              	.LFB43:
 671:.\Generated_Source\PSoC4/CapSense_CSHL.c **** 
 672:.\Generated_Source\PSoC4/CapSense_CSHL.c **** 
 673:.\Generated_Source\PSoC4/CapSense_CSHL.c **** /*******************************************************************************
 674:.\Generated_Source\PSoC4/CapSense_CSHL.c **** * Function Name: CapSense_GetBaselineData
 675:.\Generated_Source\PSoC4/CapSense_CSHL.c **** ********************************************************************************
 676:.\Generated_Source\PSoC4/CapSense_CSHL.c **** *
 677:.\Generated_Source\PSoC4/CapSense_CSHL.c **** * Summary:
 678:.\Generated_Source\PSoC4/CapSense_CSHL.c **** *  This function reads the sensor baseline from the component.
ARM GAS  C:\Users\sunyi\AppData\Local\Temp\ccDxWxH0.s 			page 28


 679:.\Generated_Source\PSoC4/CapSense_CSHL.c **** *
 680:.\Generated_Source\PSoC4/CapSense_CSHL.c **** * Parameters:
 681:.\Generated_Source\PSoC4/CapSense_CSHL.c **** *  sensor:  Sensor number.
 682:.\Generated_Source\PSoC4/CapSense_CSHL.c **** *
 683:.\Generated_Source\PSoC4/CapSense_CSHL.c **** * Return:
 684:.\Generated_Source\PSoC4/CapSense_CSHL.c **** *  This API returns the baseline value of the sensor indicated by an argument.
 685:.\Generated_Source\PSoC4/CapSense_CSHL.c **** *
 686:.\Generated_Source\PSoC4/CapSense_CSHL.c **** * Global Variables:
 687:.\Generated_Source\PSoC4/CapSense_CSHL.c **** *  CapSense_sensorBaseline[] - the array with an initial values by scanning
 688:.\Generated_Source\PSoC4/CapSense_CSHL.c **** * 
 689:.\Generated_Source\PSoC4/CapSense_CSHL.c **** * Side Effects:
 690:.\Generated_Source\PSoC4/CapSense_CSHL.c **** *  None
 691:.\Generated_Source\PSoC4/CapSense_CSHL.c **** *
 692:.\Generated_Source\PSoC4/CapSense_CSHL.c **** *******************************************************************************/
 693:.\Generated_Source\PSoC4/CapSense_CSHL.c **** uint16 CapSense_GetBaselineData(uint32 sensor)
 694:.\Generated_Source\PSoC4/CapSense_CSHL.c **** {
 845              		.loc 1 694 0
 846              		.cfi_startproc
 847 0000 80B5     		push	{r7, lr}
 848              		.cfi_def_cfa_offset 8
 849              		.cfi_offset 7, -8
 850              		.cfi_offset 14, -4
 851 0002 82B0     		sub	sp, sp, #8
 852              		.cfi_def_cfa_offset 16
 853 0004 00AF     		add	r7, sp, #0
 854              		.cfi_def_cfa_register 7
 855 0006 7860     		str	r0, [r7, #4]
 695:.\Generated_Source\PSoC4/CapSense_CSHL.c **** 	return (CapSense_sensorBaseline[sensor]);
 856              		.loc 1 695 0
 857 0008 034B     		ldr	r3, .L46
 858 000a 7A68     		ldr	r2, [r7, #4]
 859 000c 5200     		lsl	r2, r2, #1
 860 000e D35A     		ldrh	r3, [r2, r3]
 696:.\Generated_Source\PSoC4/CapSense_CSHL.c **** }
 861              		.loc 1 696 0
 862 0010 181C     		mov	r0, r3
 863 0012 BD46     		mov	sp, r7
 864 0014 02B0     		add	sp, sp, #8
 865              		@ sp needed
 866 0016 80BD     		pop	{r7, pc}
 867              	.L47:
 868              		.align	2
 869              	.L46:
 870 0018 00000000 		.word	CapSense_sensorBaseline
 871              		.cfi_endproc
 872              	.LFE43:
 873              		.size	CapSense_GetBaselineData, .-CapSense_GetBaselineData
 874              		.section	.text.CapSense_SetBaselineData,"ax",%progbits
 875              		.align	2
 876              		.global	CapSense_SetBaselineData
 877              		.code	16
 878              		.thumb_func
 879              		.type	CapSense_SetBaselineData, %function
 880              	CapSense_SetBaselineData:
 881              	.LFB44:
 697:.\Generated_Source\PSoC4/CapSense_CSHL.c **** 
 698:.\Generated_Source\PSoC4/CapSense_CSHL.c **** 
ARM GAS  C:\Users\sunyi\AppData\Local\Temp\ccDxWxH0.s 			page 29


 699:.\Generated_Source\PSoC4/CapSense_CSHL.c **** /*******************************************************************************
 700:.\Generated_Source\PSoC4/CapSense_CSHL.c **** * Function Name: CapSense_SetBaselineData
 701:.\Generated_Source\PSoC4/CapSense_CSHL.c **** ********************************************************************************
 702:.\Generated_Source\PSoC4/CapSense_CSHL.c **** *
 703:.\Generated_Source\PSoC4/CapSense_CSHL.c **** * Summary:
 704:.\Generated_Source\PSoC4/CapSense_CSHL.c **** *  This API writes the data value passed as an argument to the sensor baseline array.
 705:.\Generated_Source\PSoC4/CapSense_CSHL.c **** *
 706:.\Generated_Source\PSoC4/CapSense_CSHL.c **** * Parameters:
 707:.\Generated_Source\PSoC4/CapSense_CSHL.c **** *  sensor:  Sensor number.
 708:.\Generated_Source\PSoC4/CapSense_CSHL.c **** *  data:    Sensor baseline.
 709:.\Generated_Source\PSoC4/CapSense_CSHL.c **** *
 710:.\Generated_Source\PSoC4/CapSense_CSHL.c **** * Return:
 711:.\Generated_Source\PSoC4/CapSense_CSHL.c **** *  None.
 712:.\Generated_Source\PSoC4/CapSense_CSHL.c **** *
 713:.\Generated_Source\PSoC4/CapSense_CSHL.c **** * Global Variables:
 714:.\Generated_Source\PSoC4/CapSense_CSHL.c **** *  CapSense_sensorBaseline[] - the array with initial values by scanning
 715:.\Generated_Source\PSoC4/CapSense_CSHL.c **** * 
 716:.\Generated_Source\PSoC4/CapSense_CSHL.c **** * Side Effects:
 717:.\Generated_Source\PSoC4/CapSense_CSHL.c **** *  None
 718:.\Generated_Source\PSoC4/CapSense_CSHL.c **** *
 719:.\Generated_Source\PSoC4/CapSense_CSHL.c **** *******************************************************************************/
 720:.\Generated_Source\PSoC4/CapSense_CSHL.c **** void CapSense_SetBaselineData(uint32 sensor, uint16 data)
 721:.\Generated_Source\PSoC4/CapSense_CSHL.c **** {
 882              		.loc 1 721 0
 883              		.cfi_startproc
 884 0000 80B5     		push	{r7, lr}
 885              		.cfi_def_cfa_offset 8
 886              		.cfi_offset 7, -8
 887              		.cfi_offset 14, -4
 888 0002 82B0     		sub	sp, sp, #8
 889              		.cfi_def_cfa_offset 16
 890 0004 00AF     		add	r7, sp, #0
 891              		.cfi_def_cfa_register 7
 892 0006 7860     		str	r0, [r7, #4]
 893 0008 0A1C     		mov	r2, r1
 894 000a BB1C     		add	r3, r7, #2
 895 000c 1A80     		strh	r2, [r3]
 722:.\Generated_Source\PSoC4/CapSense_CSHL.c **** 	CapSense_sensorBaseline[sensor] = data;
 896              		.loc 1 722 0
 897 000e 044B     		ldr	r3, .L49
 898 0010 7A68     		ldr	r2, [r7, #4]
 899 0012 5200     		lsl	r2, r2, #1
 900 0014 B91C     		add	r1, r7, #2
 901 0016 0988     		ldrh	r1, [r1]
 902 0018 D152     		strh	r1, [r2, r3]
 723:.\Generated_Source\PSoC4/CapSense_CSHL.c **** }
 903              		.loc 1 723 0
 904 001a BD46     		mov	sp, r7
 905 001c 02B0     		add	sp, sp, #8
 906              		@ sp needed
 907 001e 80BD     		pop	{r7, pc}
 908              	.L50:
 909              		.align	2
 910              	.L49:
 911 0020 00000000 		.word	CapSense_sensorBaseline
 912              		.cfi_endproc
 913              	.LFE44:
ARM GAS  C:\Users\sunyi\AppData\Local\Temp\ccDxWxH0.s 			page 30


 914              		.size	CapSense_SetBaselineData, .-CapSense_SetBaselineData
 915              		.section	.text.CapSense_GetDiffCountData,"ax",%progbits
 916              		.align	2
 917              		.global	CapSense_GetDiffCountData
 918              		.code	16
 919              		.thumb_func
 920              		.type	CapSense_GetDiffCountData, %function
 921              	CapSense_GetDiffCountData:
 922              	.LFB45:
 724:.\Generated_Source\PSoC4/CapSense_CSHL.c **** 
 725:.\Generated_Source\PSoC4/CapSense_CSHL.c **** 
 726:.\Generated_Source\PSoC4/CapSense_CSHL.c **** /*******************************************************************************
 727:.\Generated_Source\PSoC4/CapSense_CSHL.c **** * Function Name: CapSense_GetDiffCountData
 728:.\Generated_Source\PSoC4/CapSense_CSHL.c **** ********************************************************************************
 729:.\Generated_Source\PSoC4/CapSense_CSHL.c **** *
 730:.\Generated_Source\PSoC4/CapSense_CSHL.c **** * Summary:
 731:.\Generated_Source\PSoC4/CapSense_CSHL.c **** *  This function returns the Sensor Signal from the component.
 732:.\Generated_Source\PSoC4/CapSense_CSHL.c **** *
 733:.\Generated_Source\PSoC4/CapSense_CSHL.c **** * Parameters:
 734:.\Generated_Source\PSoC4/CapSense_CSHL.c **** *  sensor:  Sensor number.
 735:.\Generated_Source\PSoC4/CapSense_CSHL.c **** *
 736:.\Generated_Source\PSoC4/CapSense_CSHL.c **** * Return:
 737:.\Generated_Source\PSoC4/CapSense_CSHL.c **** *  This API returns the difference count value of the sensor indicated by the 
 738:.\Generated_Source\PSoC4/CapSense_CSHL.c **** *  argument. 
 739:.\Generated_Source\PSoC4/CapSense_CSHL.c **** *
 740:.\Generated_Source\PSoC4/CapSense_CSHL.c **** * Global Variables:
 741:.\Generated_Source\PSoC4/CapSense_CSHL.c **** *  CapSense_sensorSignal[] - the array with difference counts for sensors
 742:.\Generated_Source\PSoC4/CapSense_CSHL.c **** * 
 743:.\Generated_Source\PSoC4/CapSense_CSHL.c **** * Side Effects:
 744:.\Generated_Source\PSoC4/CapSense_CSHL.c **** *  None
 745:.\Generated_Source\PSoC4/CapSense_CSHL.c **** *
 746:.\Generated_Source\PSoC4/CapSense_CSHL.c **** *******************************************************************************/
 747:.\Generated_Source\PSoC4/CapSense_CSHL.c **** uint8 CapSense_GetDiffCountData(uint32 sensor)
 748:.\Generated_Source\PSoC4/CapSense_CSHL.c **** {
 923              		.loc 1 748 0
 924              		.cfi_startproc
 925 0000 80B5     		push	{r7, lr}
 926              		.cfi_def_cfa_offset 8
 927              		.cfi_offset 7, -8
 928              		.cfi_offset 14, -4
 929 0002 82B0     		sub	sp, sp, #8
 930              		.cfi_def_cfa_offset 16
 931 0004 00AF     		add	r7, sp, #0
 932              		.cfi_def_cfa_register 7
 933 0006 7860     		str	r0, [r7, #4]
 749:.\Generated_Source\PSoC4/CapSense_CSHL.c **** 	return (CapSense_sensorSignal[sensor]);
 934              		.loc 1 749 0
 935 0008 034A     		ldr	r2, .L53
 936 000a 7B68     		ldr	r3, [r7, #4]
 937 000c D318     		add	r3, r2, r3
 938 000e 1B78     		ldrb	r3, [r3]
 750:.\Generated_Source\PSoC4/CapSense_CSHL.c **** }
 939              		.loc 1 750 0
 940 0010 181C     		mov	r0, r3
 941 0012 BD46     		mov	sp, r7
 942 0014 02B0     		add	sp, sp, #8
 943              		@ sp needed
ARM GAS  C:\Users\sunyi\AppData\Local\Temp\ccDxWxH0.s 			page 31


 944 0016 80BD     		pop	{r7, pc}
 945              	.L54:
 946              		.align	2
 947              	.L53:
 948 0018 00000000 		.word	CapSense_sensorSignal
 949              		.cfi_endproc
 950              	.LFE45:
 951              		.size	CapSense_GetDiffCountData, .-CapSense_GetDiffCountData
 952              		.section	.text.CapSense_SetDiffCountData,"ax",%progbits
 953              		.align	2
 954              		.global	CapSense_SetDiffCountData
 955              		.code	16
 956              		.thumb_func
 957              		.type	CapSense_SetDiffCountData, %function
 958              	CapSense_SetDiffCountData:
 959              	.LFB46:
 751:.\Generated_Source\PSoC4/CapSense_CSHL.c **** 
 752:.\Generated_Source\PSoC4/CapSense_CSHL.c **** 
 753:.\Generated_Source\PSoC4/CapSense_CSHL.c **** /*******************************************************************************
 754:.\Generated_Source\PSoC4/CapSense_CSHL.c **** * Function Name: CapSense_SetDiffCountData
 755:.\Generated_Source\PSoC4/CapSense_CSHL.c **** ********************************************************************************
 756:.\Generated_Source\PSoC4/CapSense_CSHL.c **** *
 757:.\Generated_Source\PSoC4/CapSense_CSHL.c **** * Summary:
 758:.\Generated_Source\PSoC4/CapSense_CSHL.c **** *  This API writes the data value passed as an argument to the sensor signal array.
 759:.\Generated_Source\PSoC4/CapSense_CSHL.c **** *
 760:.\Generated_Source\PSoC4/CapSense_CSHL.c **** * Parameters:
 761:.\Generated_Source\PSoC4/CapSense_CSHL.c **** *  sensor:  Sensor number.
 762:.\Generated_Source\PSoC4/CapSense_CSHL.c **** *  value:   Sensor signal.
 763:.\Generated_Source\PSoC4/CapSense_CSHL.c **** *
 764:.\Generated_Source\PSoC4/CapSense_CSHL.c **** * Return:
 765:.\Generated_Source\PSoC4/CapSense_CSHL.c **** *  None. 
 766:.\Generated_Source\PSoC4/CapSense_CSHL.c **** *
 767:.\Generated_Source\PSoC4/CapSense_CSHL.c **** * Global Variables:
 768:.\Generated_Source\PSoC4/CapSense_CSHL.c **** *  CapSense_sensorSignal[] - the array with difference counts for sensors
 769:.\Generated_Source\PSoC4/CapSense_CSHL.c **** * 
 770:.\Generated_Source\PSoC4/CapSense_CSHL.c **** * Side Effects:
 771:.\Generated_Source\PSoC4/CapSense_CSHL.c **** *  None
 772:.\Generated_Source\PSoC4/CapSense_CSHL.c **** *
 773:.\Generated_Source\PSoC4/CapSense_CSHL.c **** *******************************************************************************/
 774:.\Generated_Source\PSoC4/CapSense_CSHL.c **** void CapSense_SetDiffCountData(uint32 sensor, uint8 value)
 775:.\Generated_Source\PSoC4/CapSense_CSHL.c **** {
 960              		.loc 1 775 0
 961              		.cfi_startproc
 962 0000 80B5     		push	{r7, lr}
 963              		.cfi_def_cfa_offset 8
 964              		.cfi_offset 7, -8
 965              		.cfi_offset 14, -4
 966 0002 82B0     		sub	sp, sp, #8
 967              		.cfi_def_cfa_offset 16
 968 0004 00AF     		add	r7, sp, #0
 969              		.cfi_def_cfa_register 7
 970 0006 7860     		str	r0, [r7, #4]
 971 0008 0A1C     		mov	r2, r1
 972 000a FB1C     		add	r3, r7, #3
 973 000c 1A70     		strb	r2, [r3]
 776:.\Generated_Source\PSoC4/CapSense_CSHL.c ****     CapSense_sensorSignal[sensor] = value;
 974              		.loc 1 776 0
ARM GAS  C:\Users\sunyi\AppData\Local\Temp\ccDxWxH0.s 			page 32


 975 000e 044A     		ldr	r2, .L56
 976 0010 7B68     		ldr	r3, [r7, #4]
 977 0012 D318     		add	r3, r2, r3
 978 0014 FA1C     		add	r2, r7, #3
 979 0016 1278     		ldrb	r2, [r2]
 980 0018 1A70     		strb	r2, [r3]
 777:.\Generated_Source\PSoC4/CapSense_CSHL.c **** }
 981              		.loc 1 777 0
 982 001a BD46     		mov	sp, r7
 983 001c 02B0     		add	sp, sp, #8
 984              		@ sp needed
 985 001e 80BD     		pop	{r7, pc}
 986              	.L57:
 987              		.align	2
 988              	.L56:
 989 0020 00000000 		.word	CapSense_sensorSignal
 990              		.cfi_endproc
 991              	.LFE46:
 992              		.size	CapSense_SetDiffCountData, .-CapSense_SetDiffCountData
 993              		.section	.text.CapSense_GetFingerThreshold,"ax",%progbits
 994              		.align	2
 995              		.global	CapSense_GetFingerThreshold
 996              		.code	16
 997              		.thumb_func
 998              		.type	CapSense_GetFingerThreshold, %function
 999              	CapSense_GetFingerThreshold:
 1000              	.LFB47:
 778:.\Generated_Source\PSoC4/CapSense_CSHL.c **** 
 779:.\Generated_Source\PSoC4/CapSense_CSHL.c **** 
 780:.\Generated_Source\PSoC4/CapSense_CSHL.c **** /*******************************************************************************
 781:.\Generated_Source\PSoC4/CapSense_CSHL.c **** * Function Name: CapSense_GetFingerThreshold
 782:.\Generated_Source\PSoC4/CapSense_CSHL.c **** ********************************************************************************
 783:.\Generated_Source\PSoC4/CapSense_CSHL.c **** *
 784:.\Generated_Source\PSoC4/CapSense_CSHL.c **** * Summary:
 785:.\Generated_Source\PSoC4/CapSense_CSHL.c **** *  This function reads the finger threshold from the component.
 786:.\Generated_Source\PSoC4/CapSense_CSHL.c **** *
 787:.\Generated_Source\PSoC4/CapSense_CSHL.c **** * Parameters:
 788:.\Generated_Source\PSoC4/CapSense_CSHL.c **** *  widget:  widget number.
 789:.\Generated_Source\PSoC4/CapSense_CSHL.c **** *
 790:.\Generated_Source\PSoC4/CapSense_CSHL.c **** * Return:
 791:.\Generated_Source\PSoC4/CapSense_CSHL.c **** *  This API returns the finger threshold of the widget indicated by the argument. 
 792:.\Generated_Source\PSoC4/CapSense_CSHL.c **** *
 793:.\Generated_Source\PSoC4/CapSense_CSHL.c **** * Global Variables:
 794:.\Generated_Source\PSoC4/CapSense_CSHL.c **** *  CapSense_fingerThreshold[] - This array contains the level of signal 
 795:.\Generated_Source\PSoC4/CapSense_CSHL.c **** *  for each widget that is determined if a finger is present on the widget.
 796:.\Generated_Source\PSoC4/CapSense_CSHL.c **** *
 797:.\Generated_Source\PSoC4/CapSense_CSHL.c **** * Side Effects:
 798:.\Generated_Source\PSoC4/CapSense_CSHL.c **** *  None
 799:.\Generated_Source\PSoC4/CapSense_CSHL.c **** *
 800:.\Generated_Source\PSoC4/CapSense_CSHL.c **** *******************************************************************************/
 801:.\Generated_Source\PSoC4/CapSense_CSHL.c **** uint8 CapSense_GetFingerThreshold(uint32 widget)
 802:.\Generated_Source\PSoC4/CapSense_CSHL.c **** {
 1001              		.loc 1 802 0
 1002              		.cfi_startproc
 1003 0000 80B5     		push	{r7, lr}
 1004              		.cfi_def_cfa_offset 8
 1005              		.cfi_offset 7, -8
ARM GAS  C:\Users\sunyi\AppData\Local\Temp\ccDxWxH0.s 			page 33


 1006              		.cfi_offset 14, -4
 1007 0002 82B0     		sub	sp, sp, #8
 1008              		.cfi_def_cfa_offset 16
 1009 0004 00AF     		add	r7, sp, #0
 1010              		.cfi_def_cfa_register 7
 1011 0006 7860     		str	r0, [r7, #4]
 803:.\Generated_Source\PSoC4/CapSense_CSHL.c **** 	return(CapSense_fingerThreshold[widget]);
 1012              		.loc 1 803 0
 1013 0008 034A     		ldr	r2, .L60
 1014 000a 7B68     		ldr	r3, [r7, #4]
 1015 000c D318     		add	r3, r2, r3
 1016 000e 1B78     		ldrb	r3, [r3]
 804:.\Generated_Source\PSoC4/CapSense_CSHL.c **** }
 1017              		.loc 1 804 0
 1018 0010 181C     		mov	r0, r3
 1019 0012 BD46     		mov	sp, r7
 1020 0014 02B0     		add	sp, sp, #8
 1021              		@ sp needed
 1022 0016 80BD     		pop	{r7, pc}
 1023              	.L61:
 1024              		.align	2
 1025              	.L60:
 1026 0018 00000000 		.word	CapSense_fingerThreshold
 1027              		.cfi_endproc
 1028              	.LFE47:
 1029              		.size	CapSense_GetFingerThreshold, .-CapSense_GetFingerThreshold
 1030              		.section	.text.CapSense_GetNoiseThreshold,"ax",%progbits
 1031              		.align	2
 1032              		.global	CapSense_GetNoiseThreshold
 1033              		.code	16
 1034              		.thumb_func
 1035              		.type	CapSense_GetNoiseThreshold, %function
 1036              	CapSense_GetNoiseThreshold:
 1037              	.LFB48:
 805:.\Generated_Source\PSoC4/CapSense_CSHL.c **** 
 806:.\Generated_Source\PSoC4/CapSense_CSHL.c **** 
 807:.\Generated_Source\PSoC4/CapSense_CSHL.c **** /*******************************************************************************
 808:.\Generated_Source\PSoC4/CapSense_CSHL.c **** * Function Name: CapSense_GetNoiseThreshold
 809:.\Generated_Source\PSoC4/CapSense_CSHL.c **** ********************************************************************************
 810:.\Generated_Source\PSoC4/CapSense_CSHL.c **** *
 811:.\Generated_Source\PSoC4/CapSense_CSHL.c **** * Summary:
 812:.\Generated_Source\PSoC4/CapSense_CSHL.c **** *  This function reads the noise threshold from the component.
 813:.\Generated_Source\PSoC4/CapSense_CSHL.c **** *
 814:.\Generated_Source\PSoC4/CapSense_CSHL.c **** * Parameters:
 815:.\Generated_Source\PSoC4/CapSense_CSHL.c **** *  widget:  widget number.
 816:.\Generated_Source\PSoC4/CapSense_CSHL.c **** *
 817:.\Generated_Source\PSoC4/CapSense_CSHL.c **** * Return:
 818:.\Generated_Source\PSoC4/CapSense_CSHL.c **** *  This API returns the noise threshold of the widget indicated by the argument. 
 819:.\Generated_Source\PSoC4/CapSense_CSHL.c **** *
 820:.\Generated_Source\PSoC4/CapSense_CSHL.c **** * Global Variables:
 821:.\Generated_Source\PSoC4/CapSense_CSHL.c **** *  CapSense_noiseThreshold[] - This array contains the level of signal 
 822:.\Generated_Source\PSoC4/CapSense_CSHL.c **** *  for each widget that determines the level of noise in the capacitive scan.
 823:.\Generated_Source\PSoC4/CapSense_CSHL.c **** * 
 824:.\Generated_Source\PSoC4/CapSense_CSHL.c **** * Side Effects:
 825:.\Generated_Source\PSoC4/CapSense_CSHL.c **** *  None
 826:.\Generated_Source\PSoC4/CapSense_CSHL.c **** *
 827:.\Generated_Source\PSoC4/CapSense_CSHL.c **** *******************************************************************************/
ARM GAS  C:\Users\sunyi\AppData\Local\Temp\ccDxWxH0.s 			page 34


 828:.\Generated_Source\PSoC4/CapSense_CSHL.c **** uint8 CapSense_GetNoiseThreshold(uint32 widget)
 829:.\Generated_Source\PSoC4/CapSense_CSHL.c **** {
 1038              		.loc 1 829 0
 1039              		.cfi_startproc
 1040 0000 80B5     		push	{r7, lr}
 1041              		.cfi_def_cfa_offset 8
 1042              		.cfi_offset 7, -8
 1043              		.cfi_offset 14, -4
 1044 0002 82B0     		sub	sp, sp, #8
 1045              		.cfi_def_cfa_offset 16
 1046 0004 00AF     		add	r7, sp, #0
 1047              		.cfi_def_cfa_register 7
 1048 0006 7860     		str	r0, [r7, #4]
 830:.\Generated_Source\PSoC4/CapSense_CSHL.c **** 	return (CapSense_noiseThreshold[widget]);
 1049              		.loc 1 830 0
 1050 0008 034A     		ldr	r2, .L64
 1051 000a 7B68     		ldr	r3, [r7, #4]
 1052 000c D318     		add	r3, r2, r3
 1053 000e 1B78     		ldrb	r3, [r3]
 831:.\Generated_Source\PSoC4/CapSense_CSHL.c **** }
 1054              		.loc 1 831 0
 1055 0010 181C     		mov	r0, r3
 1056 0012 BD46     		mov	sp, r7
 1057 0014 02B0     		add	sp, sp, #8
 1058              		@ sp needed
 1059 0016 80BD     		pop	{r7, pc}
 1060              	.L65:
 1061              		.align	2
 1062              	.L64:
 1063 0018 00000000 		.word	CapSense_noiseThreshold
 1064              		.cfi_endproc
 1065              	.LFE48:
 1066              		.size	CapSense_GetNoiseThreshold, .-CapSense_GetNoiseThreshold
 1067              		.section	.text.CapSense_GetFingerHysteresis,"ax",%progbits
 1068              		.align	2
 1069              		.global	CapSense_GetFingerHysteresis
 1070              		.code	16
 1071              		.thumb_func
 1072              		.type	CapSense_GetFingerHysteresis, %function
 1073              	CapSense_GetFingerHysteresis:
 1074              	.LFB49:
 832:.\Generated_Source\PSoC4/CapSense_CSHL.c **** 
 833:.\Generated_Source\PSoC4/CapSense_CSHL.c **** 
 834:.\Generated_Source\PSoC4/CapSense_CSHL.c **** /*******************************************************************************
 835:.\Generated_Source\PSoC4/CapSense_CSHL.c **** * Function Name: CapSense_GetFingerHysteresis
 836:.\Generated_Source\PSoC4/CapSense_CSHL.c **** ********************************************************************************
 837:.\Generated_Source\PSoC4/CapSense_CSHL.c **** *
 838:.\Generated_Source\PSoC4/CapSense_CSHL.c **** * Summary:
 839:.\Generated_Source\PSoC4/CapSense_CSHL.c **** *  This function reads the Hysteresis value from the component.
 840:.\Generated_Source\PSoC4/CapSense_CSHL.c **** *
 841:.\Generated_Source\PSoC4/CapSense_CSHL.c **** * Parameters:
 842:.\Generated_Source\PSoC4/CapSense_CSHL.c **** *  widget:  widget number.
 843:.\Generated_Source\PSoC4/CapSense_CSHL.c **** *
 844:.\Generated_Source\PSoC4/CapSense_CSHL.c **** * Return:
 845:.\Generated_Source\PSoC4/CapSense_CSHL.c **** *  This API returns the Hysteresis of the widget indicated by the argument. 
 846:.\Generated_Source\PSoC4/CapSense_CSHL.c **** *
 847:.\Generated_Source\PSoC4/CapSense_CSHL.c **** * Global Variables:
ARM GAS  C:\Users\sunyi\AppData\Local\Temp\ccDxWxH0.s 			page 35


 848:.\Generated_Source\PSoC4/CapSense_CSHL.c **** *  CapSense_hysteresis[] - This array contains the hysteresis value 
 849:.\Generated_Source\PSoC4/CapSense_CSHL.c **** *   for each widget.
 850:.\Generated_Source\PSoC4/CapSense_CSHL.c **** *  CapSense_widgetNumberSld - structure with dynamic sliders' parameters.
 851:.\Generated_Source\PSoC4/CapSense_CSHL.c **** *
 852:.\Generated_Source\PSoC4/CapSense_CSHL.c **** * Side Effects:
 853:.\Generated_Source\PSoC4/CapSense_CSHL.c **** *  None
 854:.\Generated_Source\PSoC4/CapSense_CSHL.c **** *
 855:.\Generated_Source\PSoC4/CapSense_CSHL.c **** *******************************************************************************/
 856:.\Generated_Source\PSoC4/CapSense_CSHL.c **** uint8 CapSense_GetFingerHysteresis(uint32 widget)
 857:.\Generated_Source\PSoC4/CapSense_CSHL.c **** {
 1075              		.loc 1 857 0
 1076              		.cfi_startproc
 1077 0000 80B5     		push	{r7, lr}
 1078              		.cfi_def_cfa_offset 8
 1079              		.cfi_offset 7, -8
 1080              		.cfi_offset 14, -4
 1081 0002 82B0     		sub	sp, sp, #8
 1082              		.cfi_def_cfa_offset 16
 1083 0004 00AF     		add	r7, sp, #0
 1084              		.cfi_def_cfa_register 7
 1085 0006 7860     		str	r0, [r7, #4]
 858:.\Generated_Source\PSoC4/CapSense_CSHL.c **** 	return(CapSense_hysteresis[widget]);
 1086              		.loc 1 858 0
 1087 0008 034A     		ldr	r2, .L68
 1088 000a 7B68     		ldr	r3, [r7, #4]
 1089 000c D318     		add	r3, r2, r3
 1090 000e 1B78     		ldrb	r3, [r3]
 859:.\Generated_Source\PSoC4/CapSense_CSHL.c **** }
 1091              		.loc 1 859 0
 1092 0010 181C     		mov	r0, r3
 1093 0012 BD46     		mov	sp, r7
 1094 0014 02B0     		add	sp, sp, #8
 1095              		@ sp needed
 1096 0016 80BD     		pop	{r7, pc}
 1097              	.L69:
 1098              		.align	2
 1099              	.L68:
 1100 0018 00000000 		.word	CapSense_hysteresis
 1101              		.cfi_endproc
 1102              	.LFE49:
 1103              		.size	CapSense_GetFingerHysteresis, .-CapSense_GetFingerHysteresis
 1104              		.section	.text.CapSense_GetNegativeNoiseThreshold,"ax",%progbits
 1105              		.align	2
 1106              		.global	CapSense_GetNegativeNoiseThreshold
 1107              		.code	16
 1108              		.thumb_func
 1109              		.type	CapSense_GetNegativeNoiseThreshold, %function
 1110              	CapSense_GetNegativeNoiseThreshold:
 1111              	.LFB50:
 860:.\Generated_Source\PSoC4/CapSense_CSHL.c **** 
 861:.\Generated_Source\PSoC4/CapSense_CSHL.c **** 
 862:.\Generated_Source\PSoC4/CapSense_CSHL.c **** /*******************************************************************************
 863:.\Generated_Source\PSoC4/CapSense_CSHL.c **** * Function Name: CapSense_GetNegativeNoiseThreshold
 864:.\Generated_Source\PSoC4/CapSense_CSHL.c **** ********************************************************************************
 865:.\Generated_Source\PSoC4/CapSense_CSHL.c **** *
 866:.\Generated_Source\PSoC4/CapSense_CSHL.c **** * Summary:
 867:.\Generated_Source\PSoC4/CapSense_CSHL.c **** *  This function reads the negative noise threshold from the component.
ARM GAS  C:\Users\sunyi\AppData\Local\Temp\ccDxWxH0.s 			page 36


 868:.\Generated_Source\PSoC4/CapSense_CSHL.c **** *
 869:.\Generated_Source\PSoC4/CapSense_CSHL.c **** * Parameters: 
 870:.\Generated_Source\PSoC4/CapSense_CSHL.c **** *  None.
 871:.\Generated_Source\PSoC4/CapSense_CSHL.c **** *
 872:.\Generated_Source\PSoC4/CapSense_CSHL.c **** * Return Value: 
 873:.\Generated_Source\PSoC4/CapSense_CSHL.c **** *  This API returns the negative noise threshold
 874:.\Generated_Source\PSoC4/CapSense_CSHL.c **** *
 875:.\Generated_Source\PSoC4/CapSense_CSHL.c **** * Global Variables:
 876:.\Generated_Source\PSoC4/CapSense_CSHL.c **** *  CapSense_negativeNoiseThreshold - This variable specifies the negative 
 877:.\Generated_Source\PSoC4/CapSense_CSHL.c **** *   difference between the raw count and baseline levels for Baseline resetting
 878:.\Generated_Source\PSoC4/CapSense_CSHL.c **** *   to the raw count level.
 879:.\Generated_Source\PSoC4/CapSense_CSHL.c **** * 
 880:.\Generated_Source\PSoC4/CapSense_CSHL.c **** * Side Effects:
 881:.\Generated_Source\PSoC4/CapSense_CSHL.c **** *  None
 882:.\Generated_Source\PSoC4/CapSense_CSHL.c **** *
 883:.\Generated_Source\PSoC4/CapSense_CSHL.c **** *******************************************************************************/
 884:.\Generated_Source\PSoC4/CapSense_CSHL.c **** uint8 CapSense_GetNegativeNoiseThreshold(uint32 widget)
 885:.\Generated_Source\PSoC4/CapSense_CSHL.c **** {
 1112              		.loc 1 885 0
 1113              		.cfi_startproc
 1114 0000 80B5     		push	{r7, lr}
 1115              		.cfi_def_cfa_offset 8
 1116              		.cfi_offset 7, -8
 1117              		.cfi_offset 14, -4
 1118 0002 82B0     		sub	sp, sp, #8
 1119              		.cfi_def_cfa_offset 16
 1120 0004 00AF     		add	r7, sp, #0
 1121              		.cfi_def_cfa_register 7
 1122 0006 7860     		str	r0, [r7, #4]
 886:.\Generated_Source\PSoC4/CapSense_CSHL.c **** #if (CapSense_TUNING_METHOD != CapSense__TUNING_NONE)
 887:.\Generated_Source\PSoC4/CapSense_CSHL.c **** 	return(CapSense_negativeNoiseThreshold[widget]);
 1123              		.loc 1 887 0
 1124 0008 034A     		ldr	r2, .L72
 1125 000a 7B68     		ldr	r3, [r7, #4]
 1126 000c D318     		add	r3, r2, r3
 1127 000e 1B78     		ldrb	r3, [r3]
 888:.\Generated_Source\PSoC4/CapSense_CSHL.c **** #else
 889:.\Generated_Source\PSoC4/CapSense_CSHL.c **** 	return(CapSense_NEGATIVE_NOISE_THRESHOLD);
 890:.\Generated_Source\PSoC4/CapSense_CSHL.c **** #endif /* (CapSense_TUNING_METHOD != CapSense__TUNING_NONE) */ 
 891:.\Generated_Source\PSoC4/CapSense_CSHL.c **** }
 1128              		.loc 1 891 0
 1129 0010 181C     		mov	r0, r3
 1130 0012 BD46     		mov	sp, r7
 1131 0014 02B0     		add	sp, sp, #8
 1132              		@ sp needed
 1133 0016 80BD     		pop	{r7, pc}
 1134              	.L73:
 1135              		.align	2
 1136              	.L72:
 1137 0018 00000000 		.word	CapSense_negativeNoiseThreshold
 1138              		.cfi_endproc
 1139              	.LFE50:
 1140              		.size	CapSense_GetNegativeNoiseThreshold, .-CapSense_GetNegativeNoiseThreshold
 1141              		.section	.text.CapSense_SetFingerThreshold,"ax",%progbits
 1142              		.align	2
 1143              		.global	CapSense_SetFingerThreshold
 1144              		.code	16
ARM GAS  C:\Users\sunyi\AppData\Local\Temp\ccDxWxH0.s 			page 37


 1145              		.thumb_func
 1146              		.type	CapSense_SetFingerThreshold, %function
 1147              	CapSense_SetFingerThreshold:
 1148              	.LFB51:
 892:.\Generated_Source\PSoC4/CapSense_CSHL.c **** 
 893:.\Generated_Source\PSoC4/CapSense_CSHL.c **** 
 894:.\Generated_Source\PSoC4/CapSense_CSHL.c **** #if(CapSense_TUNING_METHOD != CapSense__TUNING_NONE)
 895:.\Generated_Source\PSoC4/CapSense_CSHL.c **** 	/*******************************************************************************
 896:.\Generated_Source\PSoC4/CapSense_CSHL.c **** 	* Function Name: CapSense_SetFingerThreshold
 897:.\Generated_Source\PSoC4/CapSense_CSHL.c **** 	********************************************************************************
 898:.\Generated_Source\PSoC4/CapSense_CSHL.c **** 	*
 899:.\Generated_Source\PSoC4/CapSense_CSHL.c **** 	* Summary:
 900:.\Generated_Source\PSoC4/CapSense_CSHL.c **** 	*  This API sets the finger threshold value for a widget. 
 901:.\Generated_Source\PSoC4/CapSense_CSHL.c **** 	*
 902:.\Generated_Source\PSoC4/CapSense_CSHL.c **** 	* Parameters: 
 903:.\Generated_Source\PSoC4/CapSense_CSHL.c **** 	*  sensorNumber:  widget index. 
 904:.\Generated_Source\PSoC4/CapSense_CSHL.c **** 	*  value:  Finger threshold value for the widget.
 905:.\Generated_Source\PSoC4/CapSense_CSHL.c **** 	*
 906:.\Generated_Source\PSoC4/CapSense_CSHL.c **** 	* Return Value: 
 907:.\Generated_Source\PSoC4/CapSense_CSHL.c **** 	*  None
 908:.\Generated_Source\PSoC4/CapSense_CSHL.c **** 	*
 909:.\Generated_Source\PSoC4/CapSense_CSHL.c **** 	* Global Variables:
 910:.\Generated_Source\PSoC4/CapSense_CSHL.c **** 	*  CapSense_fingerThreshold[] - This array contains the level of signal 
 911:.\Generated_Source\PSoC4/CapSense_CSHL.c **** 	*   for each widget that determines if a finger is present on the widget.
 912:.\Generated_Source\PSoC4/CapSense_CSHL.c **** 	* 
 913:.\Generated_Source\PSoC4/CapSense_CSHL.c **** 	* Side Effects:
 914:.\Generated_Source\PSoC4/CapSense_CSHL.c **** 	*  None
 915:.\Generated_Source\PSoC4/CapSense_CSHL.c **** 	*
 916:.\Generated_Source\PSoC4/CapSense_CSHL.c **** 	*******************************************************************************/
 917:.\Generated_Source\PSoC4/CapSense_CSHL.c **** 	void CapSense_SetFingerThreshold(uint32 widget, uint8 value)
 918:.\Generated_Source\PSoC4/CapSense_CSHL.c **** 	{	
 1149              		.loc 1 918 0
 1150              		.cfi_startproc
 1151 0000 80B5     		push	{r7, lr}
 1152              		.cfi_def_cfa_offset 8
 1153              		.cfi_offset 7, -8
 1154              		.cfi_offset 14, -4
 1155 0002 82B0     		sub	sp, sp, #8
 1156              		.cfi_def_cfa_offset 16
 1157 0004 00AF     		add	r7, sp, #0
 1158              		.cfi_def_cfa_register 7
 1159 0006 7860     		str	r0, [r7, #4]
 1160 0008 0A1C     		mov	r2, r1
 1161 000a FB1C     		add	r3, r7, #3
 1162 000c 1A70     		strb	r2, [r3]
 919:.\Generated_Source\PSoC4/CapSense_CSHL.c **** 		CapSense_fingerThreshold[widget] = value;
 1163              		.loc 1 919 0
 1164 000e 044A     		ldr	r2, .L75
 1165 0010 7B68     		ldr	r3, [r7, #4]
 1166 0012 D318     		add	r3, r2, r3
 1167 0014 FA1C     		add	r2, r7, #3
 1168 0016 1278     		ldrb	r2, [r2]
 1169 0018 1A70     		strb	r2, [r3]
 920:.\Generated_Source\PSoC4/CapSense_CSHL.c **** 	}
 1170              		.loc 1 920 0
 1171 001a BD46     		mov	sp, r7
 1172 001c 02B0     		add	sp, sp, #8
ARM GAS  C:\Users\sunyi\AppData\Local\Temp\ccDxWxH0.s 			page 38


 1173              		@ sp needed
 1174 001e 80BD     		pop	{r7, pc}
 1175              	.L76:
 1176              		.align	2
 1177              	.L75:
 1178 0020 00000000 		.word	CapSense_fingerThreshold
 1179              		.cfi_endproc
 1180              	.LFE51:
 1181              		.size	CapSense_SetFingerThreshold, .-CapSense_SetFingerThreshold
 1182              		.section	.text.CapSense_SetNoiseThreshold,"ax",%progbits
 1183              		.align	2
 1184              		.global	CapSense_SetNoiseThreshold
 1185              		.code	16
 1186              		.thumb_func
 1187              		.type	CapSense_SetNoiseThreshold, %function
 1188              	CapSense_SetNoiseThreshold:
 1189              	.LFB52:
 921:.\Generated_Source\PSoC4/CapSense_CSHL.c **** 
 922:.\Generated_Source\PSoC4/CapSense_CSHL.c **** 
 923:.\Generated_Source\PSoC4/CapSense_CSHL.c **** 	/*******************************************************************************
 924:.\Generated_Source\PSoC4/CapSense_CSHL.c **** 	* Function Name: CapSense_SetNoiseThreshold
 925:.\Generated_Source\PSoC4/CapSense_CSHL.c **** 	********************************************************************************
 926:.\Generated_Source\PSoC4/CapSense_CSHL.c **** 	*
 927:.\Generated_Source\PSoC4/CapSense_CSHL.c **** 	* Summary:
 928:.\Generated_Source\PSoC4/CapSense_CSHL.c **** 	*  This API sets the Noise Threshold value for each widget.
 929:.\Generated_Source\PSoC4/CapSense_CSHL.c **** 	*
 930:.\Generated_Source\PSoC4/CapSense_CSHL.c **** 	* Parameters:
 931:.\Generated_Source\PSoC4/CapSense_CSHL.c **** 	*  widget:  Sensor index number.
 932:.\Generated_Source\PSoC4/CapSense_CSHL.c **** 	*  value:   Noise Threshold value for widget.
 933:.\Generated_Source\PSoC4/CapSense_CSHL.c **** 	*
 934:.\Generated_Source\PSoC4/CapSense_CSHL.c **** 	* Return Value: 
 935:.\Generated_Source\PSoC4/CapSense_CSHL.c **** 	*  None
 936:.\Generated_Source\PSoC4/CapSense_CSHL.c **** 	*
 937:.\Generated_Source\PSoC4/CapSense_CSHL.c **** 	* Global Variables:
 938:.\Generated_Source\PSoC4/CapSense_CSHL.c **** 	*  CapSense_noiseThreshold[] - This array contains the level of signal 
 939:.\Generated_Source\PSoC4/CapSense_CSHL.c **** 	*   for each widget that determines the level of noise in the capacitive scan.
 940:.\Generated_Source\PSoC4/CapSense_CSHL.c **** 	* 
 941:.\Generated_Source\PSoC4/CapSense_CSHL.c **** 	* Side Effects:
 942:.\Generated_Source\PSoC4/CapSense_CSHL.c **** 	*  None
 943:.\Generated_Source\PSoC4/CapSense_CSHL.c **** 	*
 944:.\Generated_Source\PSoC4/CapSense_CSHL.c **** 	*******************************************************************************/
 945:.\Generated_Source\PSoC4/CapSense_CSHL.c **** 	void CapSense_SetNoiseThreshold(uint32 widget, uint8 value)
 946:.\Generated_Source\PSoC4/CapSense_CSHL.c **** 	{
 1190              		.loc 1 946 0
 1191              		.cfi_startproc
 1192 0000 80B5     		push	{r7, lr}
 1193              		.cfi_def_cfa_offset 8
 1194              		.cfi_offset 7, -8
 1195              		.cfi_offset 14, -4
 1196 0002 82B0     		sub	sp, sp, #8
 1197              		.cfi_def_cfa_offset 16
 1198 0004 00AF     		add	r7, sp, #0
 1199              		.cfi_def_cfa_register 7
 1200 0006 7860     		str	r0, [r7, #4]
 1201 0008 0A1C     		mov	r2, r1
 1202 000a FB1C     		add	r3, r7, #3
 1203 000c 1A70     		strb	r2, [r3]
ARM GAS  C:\Users\sunyi\AppData\Local\Temp\ccDxWxH0.s 			page 39


 947:.\Generated_Source\PSoC4/CapSense_CSHL.c **** 		CapSense_noiseThreshold[widget] = value;
 1204              		.loc 1 947 0
 1205 000e 044A     		ldr	r2, .L78
 1206 0010 7B68     		ldr	r3, [r7, #4]
 1207 0012 D318     		add	r3, r2, r3
 1208 0014 FA1C     		add	r2, r7, #3
 1209 0016 1278     		ldrb	r2, [r2]
 1210 0018 1A70     		strb	r2, [r3]
 948:.\Generated_Source\PSoC4/CapSense_CSHL.c **** 	}
 1211              		.loc 1 948 0
 1212 001a BD46     		mov	sp, r7
 1213 001c 02B0     		add	sp, sp, #8
 1214              		@ sp needed
 1215 001e 80BD     		pop	{r7, pc}
 1216              	.L79:
 1217              		.align	2
 1218              	.L78:
 1219 0020 00000000 		.word	CapSense_noiseThreshold
 1220              		.cfi_endproc
 1221              	.LFE52:
 1222              		.size	CapSense_SetNoiseThreshold, .-CapSense_SetNoiseThreshold
 1223              		.section	.text.CapSense_SetFingerHysteresis,"ax",%progbits
 1224              		.align	2
 1225              		.global	CapSense_SetFingerHysteresis
 1226              		.code	16
 1227              		.thumb_func
 1228              		.type	CapSense_SetFingerHysteresis, %function
 1229              	CapSense_SetFingerHysteresis:
 1230              	.LFB53:
 949:.\Generated_Source\PSoC4/CapSense_CSHL.c **** 
 950:.\Generated_Source\PSoC4/CapSense_CSHL.c **** 
 951:.\Generated_Source\PSoC4/CapSense_CSHL.c **** 	/*******************************************************************************
 952:.\Generated_Source\PSoC4/CapSense_CSHL.c **** 	* Function Name: CapSense_SetFingerHysteresis
 953:.\Generated_Source\PSoC4/CapSense_CSHL.c **** 	********************************************************************************
 954:.\Generated_Source\PSoC4/CapSense_CSHL.c **** 	*
 955:.\Generated_Source\PSoC4/CapSense_CSHL.c **** 	* Summary:
 956:.\Generated_Source\PSoC4/CapSense_CSHL.c **** 	*  This API sets the Hysteresis value of a widget
 957:.\Generated_Source\PSoC4/CapSense_CSHL.c **** 	*
 958:.\Generated_Source\PSoC4/CapSense_CSHL.c **** 	* Parameters: 
 959:.\Generated_Source\PSoC4/CapSense_CSHL.c **** 	*  value:  Hysteresis value for widgets.
 960:.\Generated_Source\PSoC4/CapSense_CSHL.c **** 	*  widget:  widget number
 961:.\Generated_Source\PSoC4/CapSense_CSHL.c **** 	*
 962:.\Generated_Source\PSoC4/CapSense_CSHL.c **** 	* Return Value: 
 963:.\Generated_Source\PSoC4/CapSense_CSHL.c **** 	*  None
 964:.\Generated_Source\PSoC4/CapSense_CSHL.c **** 	*
 965:.\Generated_Source\PSoC4/CapSense_CSHL.c **** 	* Global Variables:
 966:.\Generated_Source\PSoC4/CapSense_CSHL.c **** 	*  CapSense_hysteresis[] - This array contains the hysteresis value for each widget.
 967:.\Generated_Source\PSoC4/CapSense_CSHL.c **** 	*  CapSense_widgetNumberSld - structure with dynamic sliders' parameters.
 968:.\Generated_Source\PSoC4/CapSense_CSHL.c **** 	*
 969:.\Generated_Source\PSoC4/CapSense_CSHL.c **** 	* Side Effects:
 970:.\Generated_Source\PSoC4/CapSense_CSHL.c **** 	*  None
 971:.\Generated_Source\PSoC4/CapSense_CSHL.c **** 	*
 972:.\Generated_Source\PSoC4/CapSense_CSHL.c **** 	*******************************************************************************/
 973:.\Generated_Source\PSoC4/CapSense_CSHL.c **** 	void CapSense_SetFingerHysteresis(uint32 widget, uint8 value)
 974:.\Generated_Source\PSoC4/CapSense_CSHL.c **** 	{
 1231              		.loc 1 974 0
 1232              		.cfi_startproc
ARM GAS  C:\Users\sunyi\AppData\Local\Temp\ccDxWxH0.s 			page 40


 1233 0000 80B5     		push	{r7, lr}
 1234              		.cfi_def_cfa_offset 8
 1235              		.cfi_offset 7, -8
 1236              		.cfi_offset 14, -4
 1237 0002 82B0     		sub	sp, sp, #8
 1238              		.cfi_def_cfa_offset 16
 1239 0004 00AF     		add	r7, sp, #0
 1240              		.cfi_def_cfa_register 7
 1241 0006 7860     		str	r0, [r7, #4]
 1242 0008 0A1C     		mov	r2, r1
 1243 000a FB1C     		add	r3, r7, #3
 1244 000c 1A70     		strb	r2, [r3]
 975:.\Generated_Source\PSoC4/CapSense_CSHL.c **** 		CapSense_hysteresis[widget] = value;
 1245              		.loc 1 975 0
 1246 000e 044A     		ldr	r2, .L81
 1247 0010 7B68     		ldr	r3, [r7, #4]
 1248 0012 D318     		add	r3, r2, r3
 1249 0014 FA1C     		add	r2, r7, #3
 1250 0016 1278     		ldrb	r2, [r2]
 1251 0018 1A70     		strb	r2, [r3]
 976:.\Generated_Source\PSoC4/CapSense_CSHL.c **** 	}
 1252              		.loc 1 976 0
 1253 001a BD46     		mov	sp, r7
 1254 001c 02B0     		add	sp, sp, #8
 1255              		@ sp needed
 1256 001e 80BD     		pop	{r7, pc}
 1257              	.L82:
 1258              		.align	2
 1259              	.L81:
 1260 0020 00000000 		.word	CapSense_hysteresis
 1261              		.cfi_endproc
 1262              	.LFE53:
 1263              		.size	CapSense_SetFingerHysteresis, .-CapSense_SetFingerHysteresis
 1264              		.section	.text.CapSense_SetNegativeNoiseThreshold,"ax",%progbits
 1265              		.align	2
 1266              		.global	CapSense_SetNegativeNoiseThreshold
 1267              		.code	16
 1268              		.thumb_func
 1269              		.type	CapSense_SetNegativeNoiseThreshold, %function
 1270              	CapSense_SetNegativeNoiseThreshold:
 1271              	.LFB54:
 977:.\Generated_Source\PSoC4/CapSense_CSHL.c **** 
 978:.\Generated_Source\PSoC4/CapSense_CSHL.c **** 
 979:.\Generated_Source\PSoC4/CapSense_CSHL.c **** 	/*******************************************************************************
 980:.\Generated_Source\PSoC4/CapSense_CSHL.c **** 	* Function Name: CapSense_SetNegativeNoiseThreshold
 981:.\Generated_Source\PSoC4/CapSense_CSHL.c **** 	********************************************************************************
 982:.\Generated_Source\PSoC4/CapSense_CSHL.c **** 	*
 983:.\Generated_Source\PSoC4/CapSense_CSHL.c **** 	* Summary:
 984:.\Generated_Source\PSoC4/CapSense_CSHL.c **** 	*  This API sets the Negative Noise Threshold value of a widget
 985:.\Generated_Source\PSoC4/CapSense_CSHL.c **** 	*
 986:.\Generated_Source\PSoC4/CapSense_CSHL.c **** 	* Parameters: 
 987:.\Generated_Source\PSoC4/CapSense_CSHL.c **** 	*  value:  Negative Noise Threshold value for widgets.
 988:.\Generated_Source\PSoC4/CapSense_CSHL.c **** 	*  widget: widget number
 989:.\Generated_Source\PSoC4/CapSense_CSHL.c **** 	*
 990:.\Generated_Source\PSoC4/CapSense_CSHL.c **** 	* Return Value: 
 991:.\Generated_Source\PSoC4/CapSense_CSHL.c **** 	*  None
 992:.\Generated_Source\PSoC4/CapSense_CSHL.c **** 	*
ARM GAS  C:\Users\sunyi\AppData\Local\Temp\ccDxWxH0.s 			page 41


 993:.\Generated_Source\PSoC4/CapSense_CSHL.c **** 	* Global Variables:
 994:.\Generated_Source\PSoC4/CapSense_CSHL.c **** 	*  CapSense_negativeNoiseThreshold  - This parameter specifies the negative 
 995:.\Generated_Source\PSoC4/CapSense_CSHL.c **** 	*   difference between the raw count and baseline levels for Baseline resetting to 
 996:.\Generated_Source\PSoC4/CapSense_CSHL.c **** 	*   the raw count level.
 997:.\Generated_Source\PSoC4/CapSense_CSHL.c **** 	* 
 998:.\Generated_Source\PSoC4/CapSense_CSHL.c **** 	* Side Effects:
 999:.\Generated_Source\PSoC4/CapSense_CSHL.c **** 	*  None
1000:.\Generated_Source\PSoC4/CapSense_CSHL.c **** 	*
1001:.\Generated_Source\PSoC4/CapSense_CSHL.c **** 	*******************************************************************************/
1002:.\Generated_Source\PSoC4/CapSense_CSHL.c **** 	void CapSense_SetNegativeNoiseThreshold(uint32 widget, uint8 value)
1003:.\Generated_Source\PSoC4/CapSense_CSHL.c **** 	{
 1272              		.loc 1 1003 0
 1273              		.cfi_startproc
 1274 0000 80B5     		push	{r7, lr}
 1275              		.cfi_def_cfa_offset 8
 1276              		.cfi_offset 7, -8
 1277              		.cfi_offset 14, -4
 1278 0002 82B0     		sub	sp, sp, #8
 1279              		.cfi_def_cfa_offset 16
 1280 0004 00AF     		add	r7, sp, #0
 1281              		.cfi_def_cfa_register 7
 1282 0006 7860     		str	r0, [r7, #4]
 1283 0008 0A1C     		mov	r2, r1
 1284 000a FB1C     		add	r3, r7, #3
 1285 000c 1A70     		strb	r2, [r3]
1004:.\Generated_Source\PSoC4/CapSense_CSHL.c **** 		CapSense_negativeNoiseThreshold[widget] = value;
 1286              		.loc 1 1004 0
 1287 000e 044A     		ldr	r2, .L84
 1288 0010 7B68     		ldr	r3, [r7, #4]
 1289 0012 D318     		add	r3, r2, r3
 1290 0014 FA1C     		add	r2, r7, #3
 1291 0016 1278     		ldrb	r2, [r2]
 1292 0018 1A70     		strb	r2, [r3]
1005:.\Generated_Source\PSoC4/CapSense_CSHL.c **** 	}
 1293              		.loc 1 1005 0
 1294 001a BD46     		mov	sp, r7
 1295 001c 02B0     		add	sp, sp, #8
 1296              		@ sp needed
 1297 001e 80BD     		pop	{r7, pc}
 1298              	.L85:
 1299              		.align	2
 1300              	.L84:
 1301 0020 00000000 		.word	CapSense_negativeNoiseThreshold
 1302              		.cfi_endproc
 1303              	.LFE54:
 1304              		.size	CapSense_SetNegativeNoiseThreshold, .-CapSense_SetNegativeNoiseThreshold
 1305              		.section	.text.CapSense_SetDebounce,"ax",%progbits
 1306              		.align	2
 1307              		.global	CapSense_SetDebounce
 1308              		.code	16
 1309              		.thumb_func
 1310              		.type	CapSense_SetDebounce, %function
 1311              	CapSense_SetDebounce:
 1312              	.LFB55:
1006:.\Generated_Source\PSoC4/CapSense_CSHL.c **** 
1007:.\Generated_Source\PSoC4/CapSense_CSHL.c **** 
1008:.\Generated_Source\PSoC4/CapSense_CSHL.c **** 	/*******************************************************************************
ARM GAS  C:\Users\sunyi\AppData\Local\Temp\ccDxWxH0.s 			page 42


1009:.\Generated_Source\PSoC4/CapSense_CSHL.c **** 	* Function Name: CapSense_SetDebounce
1010:.\Generated_Source\PSoC4/CapSense_CSHL.c **** 	********************************************************************************
1011:.\Generated_Source\PSoC4/CapSense_CSHL.c **** 	*
1012:.\Generated_Source\PSoC4/CapSense_CSHL.c **** 	* Summary:
1013:.\Generated_Source\PSoC4/CapSense_CSHL.c **** 	*  This API sets the debounce value for a widget.
1014:.\Generated_Source\PSoC4/CapSense_CSHL.c **** 	*
1015:.\Generated_Source\PSoC4/CapSense_CSHL.c **** 	* Parameters: 
1016:.\Generated_Source\PSoC4/CapSense_CSHL.c **** 	*  value:  Debounce value for widget.
1017:.\Generated_Source\PSoC4/CapSense_CSHL.c **** 	*  widget: widget index.
1018:.\Generated_Source\PSoC4/CapSense_CSHL.c **** 	*
1019:.\Generated_Source\PSoC4/CapSense_CSHL.c **** 	* Return Value: 
1020:.\Generated_Source\PSoC4/CapSense_CSHL.c **** 	*  None
1021:.\Generated_Source\PSoC4/CapSense_CSHL.c **** 	*
1022:.\Generated_Source\PSoC4/CapSense_CSHL.c **** 	* Global Variables:
1023:.\Generated_Source\PSoC4/CapSense_CSHL.c **** 	*  CapSense_debounce[] - This array contains the debounce value for each widget.
1024:.\Generated_Source\PSoC4/CapSense_CSHL.c **** 	*  CapSense_widgetNumberSld - structure with dynamic sliders' parameters.
1025:.\Generated_Source\PSoC4/CapSense_CSHL.c **** 	*
1026:.\Generated_Source\PSoC4/CapSense_CSHL.c **** 	* Side Effects:
1027:.\Generated_Source\PSoC4/CapSense_CSHL.c **** 	*  None
1028:.\Generated_Source\PSoC4/CapSense_CSHL.c **** 	*
1029:.\Generated_Source\PSoC4/CapSense_CSHL.c **** 	*******************************************************************************/
1030:.\Generated_Source\PSoC4/CapSense_CSHL.c **** 	void CapSense_SetDebounce(uint32 widget, uint8 value)
1031:.\Generated_Source\PSoC4/CapSense_CSHL.c **** 	{
 1313              		.loc 1 1031 0
 1314              		.cfi_startproc
 1315 0000 80B5     		push	{r7, lr}
 1316              		.cfi_def_cfa_offset 8
 1317              		.cfi_offset 7, -8
 1318              		.cfi_offset 14, -4
 1319 0002 82B0     		sub	sp, sp, #8
 1320              		.cfi_def_cfa_offset 16
 1321 0004 00AF     		add	r7, sp, #0
 1322              		.cfi_def_cfa_register 7
 1323 0006 7860     		str	r0, [r7, #4]
 1324 0008 0A1C     		mov	r2, r1
 1325 000a FB1C     		add	r3, r7, #3
 1326 000c 1A70     		strb	r2, [r3]
1032:.\Generated_Source\PSoC4/CapSense_CSHL.c **** 		CapSense_debounce[widget] = value;
 1327              		.loc 1 1032 0
 1328 000e 044A     		ldr	r2, .L87
 1329 0010 7B68     		ldr	r3, [r7, #4]
 1330 0012 D318     		add	r3, r2, r3
 1331 0014 FA1C     		add	r2, r7, #3
 1332 0016 1278     		ldrb	r2, [r2]
 1333 0018 1A70     		strb	r2, [r3]
1033:.\Generated_Source\PSoC4/CapSense_CSHL.c **** 	}
 1334              		.loc 1 1033 0
 1335 001a BD46     		mov	sp, r7
 1336 001c 02B0     		add	sp, sp, #8
 1337              		@ sp needed
 1338 001e 80BD     		pop	{r7, pc}
 1339              	.L88:
 1340              		.align	2
 1341              	.L87:
 1342 0020 00000000 		.word	CapSense_debounce
 1343              		.cfi_endproc
 1344              	.LFE55:
ARM GAS  C:\Users\sunyi\AppData\Local\Temp\ccDxWxH0.s 			page 43


 1345              		.size	CapSense_SetDebounce, .-CapSense_SetDebounce
 1346              		.section	.text.CapSense_SetLowBaselineReset,"ax",%progbits
 1347              		.align	2
 1348              		.global	CapSense_SetLowBaselineReset
 1349              		.code	16
 1350              		.thumb_func
 1351              		.type	CapSense_SetLowBaselineReset, %function
 1352              	CapSense_SetLowBaselineReset:
 1353              	.LFB56:
1034:.\Generated_Source\PSoC4/CapSense_CSHL.c **** 
1035:.\Generated_Source\PSoC4/CapSense_CSHL.c **** 
1036:.\Generated_Source\PSoC4/CapSense_CSHL.c **** 	/*******************************************************************************
1037:.\Generated_Source\PSoC4/CapSense_CSHL.c **** 	* Function Name: CapSense_SetLowBaselineReset
1038:.\Generated_Source\PSoC4/CapSense_CSHL.c **** 	********************************************************************************
1039:.\Generated_Source\PSoC4/CapSense_CSHL.c **** 	*
1040:.\Generated_Source\PSoC4/CapSense_CSHL.c **** 	* Summary:
1041:.\Generated_Source\PSoC4/CapSense_CSHL.c **** 	*  This API sets the low baseline reset threshold value for the sensor.
1042:.\Generated_Source\PSoC4/CapSense_CSHL.c **** 	*
1043:.\Generated_Source\PSoC4/CapSense_CSHL.c **** 	* Parameters: 
1044:.\Generated_Source\PSoC4/CapSense_CSHL.c **** 	*  value: low baseline reset threshold value.
1045:.\Generated_Source\PSoC4/CapSense_CSHL.c **** 	*  sensor: Sensor index.
1046:.\Generated_Source\PSoC4/CapSense_CSHL.c **** 	*
1047:.\Generated_Source\PSoC4/CapSense_CSHL.c **** 	* Return Value: 
1048:.\Generated_Source\PSoC4/CapSense_CSHL.c **** 	*  None
1049:.\Generated_Source\PSoC4/CapSense_CSHL.c **** 	*
1050:.\Generated_Source\PSoC4/CapSense_CSHL.c **** 	* Global Variables:
1051:.\Generated_Source\PSoC4/CapSense_CSHL.c **** 	*  CapSense_lowBaselineReset[] - This array contains the Baseline update 
1052:.\Generated_Source\PSoC4/CapSense_CSHL.c **** 	*  threshold value for each sensor.
1053:.\Generated_Source\PSoC4/CapSense_CSHL.c **** 	* 
1054:.\Generated_Source\PSoC4/CapSense_CSHL.c **** 	* Side Effects:
1055:.\Generated_Source\PSoC4/CapSense_CSHL.c **** 	*  None
1056:.\Generated_Source\PSoC4/CapSense_CSHL.c **** 	*
1057:.\Generated_Source\PSoC4/CapSense_CSHL.c **** 	*******************************************************************************/
1058:.\Generated_Source\PSoC4/CapSense_CSHL.c **** 	void CapSense_SetLowBaselineReset(uint32 sensor, uint8 value)
1059:.\Generated_Source\PSoC4/CapSense_CSHL.c **** 	{
 1354              		.loc 1 1059 0
 1355              		.cfi_startproc
 1356 0000 80B5     		push	{r7, lr}
 1357              		.cfi_def_cfa_offset 8
 1358              		.cfi_offset 7, -8
 1359              		.cfi_offset 14, -4
 1360 0002 82B0     		sub	sp, sp, #8
 1361              		.cfi_def_cfa_offset 16
 1362 0004 00AF     		add	r7, sp, #0
 1363              		.cfi_def_cfa_register 7
 1364 0006 7860     		str	r0, [r7, #4]
 1365 0008 0A1C     		mov	r2, r1
 1366 000a FB1C     		add	r3, r7, #3
 1367 000c 1A70     		strb	r2, [r3]
1060:.\Generated_Source\PSoC4/CapSense_CSHL.c **** 		CapSense_lowBaselineReset[sensor] = value;
 1368              		.loc 1 1060 0
 1369 000e 044A     		ldr	r2, .L90
 1370 0010 7B68     		ldr	r3, [r7, #4]
 1371 0012 D318     		add	r3, r2, r3
 1372 0014 FA1C     		add	r2, r7, #3
 1373 0016 1278     		ldrb	r2, [r2]
 1374 0018 1A70     		strb	r2, [r3]
ARM GAS  C:\Users\sunyi\AppData\Local\Temp\ccDxWxH0.s 			page 44


1061:.\Generated_Source\PSoC4/CapSense_CSHL.c **** 	}
 1375              		.loc 1 1061 0
 1376 001a BD46     		mov	sp, r7
 1377 001c 02B0     		add	sp, sp, #8
 1378              		@ sp needed
 1379 001e 80BD     		pop	{r7, pc}
 1380              	.L91:
 1381              		.align	2
 1382              	.L90:
 1383 0020 00000000 		.word	CapSense_lowBaselineReset
 1384              		.cfi_endproc
 1385              	.LFE56:
 1386              		.size	CapSense_SetLowBaselineReset, .-CapSense_SetLowBaselineReset
 1387              		.section	.text.CapSense_CheckIsSensorActive,"ax",%progbits
 1388              		.align	2
 1389              		.global	CapSense_CheckIsSensorActive
 1390              		.code	16
 1391              		.thumb_func
 1392              		.type	CapSense_CheckIsSensorActive, %function
 1393              	CapSense_CheckIsSensorActive:
 1394              	.LFB57:
1062:.\Generated_Source\PSoC4/CapSense_CSHL.c **** #endif /* (CapSense_TUNING_METHOD != CapSense__TUNING_NONE) */
1063:.\Generated_Source\PSoC4/CapSense_CSHL.c **** 
1064:.\Generated_Source\PSoC4/CapSense_CSHL.c **** 
1065:.\Generated_Source\PSoC4/CapSense_CSHL.c **** /*******************************************************************************
1066:.\Generated_Source\PSoC4/CapSense_CSHL.c **** * Function Name: CapSense_CheckIsSensorActive
1067:.\Generated_Source\PSoC4/CapSense_CSHL.c **** ********************************************************************************
1068:.\Generated_Source\PSoC4/CapSense_CSHL.c **** *
1069:.\Generated_Source\PSoC4/CapSense_CSHL.c **** * Summary:
1070:.\Generated_Source\PSoC4/CapSense_CSHL.c **** *  Compares the CapSense_sensorSignal[sensor] array element to the finger
1071:.\Generated_Source\PSoC4/CapSense_CSHL.c **** *  threshold of the widget it belongs to. The hysteresis and debounce are taken into 
1072:.\Generated_Source\PSoC4/CapSense_CSHL.c **** *  account. The hysteresis is added or subtracted from the finger threshold 
1073:.\Generated_Source\PSoC4/CapSense_CSHL.c **** *  based on whether the sensor is currently active. 
1074:.\Generated_Source\PSoC4/CapSense_CSHL.c **** *  If the sensor is active, the threshold is lowered by the hysteresis amount.
1075:.\Generated_Source\PSoC4/CapSense_CSHL.c **** *  If the sensor is inactive, the threshold is raised by the hysteresis amount.
1076:.\Generated_Source\PSoC4/CapSense_CSHL.c **** *  The debounce counter is added to the sensor active transition.
1077:.\Generated_Source\PSoC4/CapSense_CSHL.c **** *  This function updates the CapSense_sensorOnMask[] array element.
1078:.\Generated_Source\PSoC4/CapSense_CSHL.c **** *
1079:.\Generated_Source\PSoC4/CapSense_CSHL.c **** * Parameters:
1080:.\Generated_Source\PSoC4/CapSense_CSHL.c **** *  sensor:  Sensor number.
1081:.\Generated_Source\PSoC4/CapSense_CSHL.c **** *
1082:.\Generated_Source\PSoC4/CapSense_CSHL.c **** * Return:
1083:.\Generated_Source\PSoC4/CapSense_CSHL.c **** *  Returns sensor state 1 if active, 0 if not active.
1084:.\Generated_Source\PSoC4/CapSense_CSHL.c **** *
1085:.\Generated_Source\PSoC4/CapSense_CSHL.c **** * Global Variables:
1086:.\Generated_Source\PSoC4/CapSense_CSHL.c **** *  CapSense_sensorSignal[] - used to store the difference between 
1087:.\Generated_Source\PSoC4/CapSense_CSHL.c **** *  the current value of raw data and a previous value of the baseline.
1088:.\Generated_Source\PSoC4/CapSense_CSHL.c **** *  CapSense_debounceCounter[]   - used to store the current debounce 
1089:.\Generated_Source\PSoC4/CapSense_CSHL.c **** *  counter of the sensor. the widget which have this parameter are buttons, matrix 
1090:.\Generated_Source\PSoC4/CapSense_CSHL.c **** *  buttons, proximity, and guard. All other widgets don't have the  debounce parameter
1091:.\Generated_Source\PSoC4/CapSense_CSHL.c **** *  and use the last element of this array with value 0 (it means no debounce).
1092:.\Generated_Source\PSoC4/CapSense_CSHL.c **** *  CapSense_sensorOnMask[] - used to store the sensors on/off state.
1093:.\Generated_Source\PSoC4/CapSense_CSHL.c **** *  CapSense_sensorOnMask[0] contains the masked bits for sensors 
1094:.\Generated_Source\PSoC4/CapSense_CSHL.c **** *   0 through 7 (sensor 0 is bit 0, sensor 1 is bit 1).
1095:.\Generated_Source\PSoC4/CapSense_CSHL.c **** *  CapSense_sensorEnableMask[1] contains the masked bits for 
1096:.\Generated_Source\PSoC4/CapSense_CSHL.c **** *  sensors 8 through 15 (if needed), and so on.
1097:.\Generated_Source\PSoC4/CapSense_CSHL.c **** *  0 - sensor is inactive.
ARM GAS  C:\Users\sunyi\AppData\Local\Temp\ccDxWxH0.s 			page 45


1098:.\Generated_Source\PSoC4/CapSense_CSHL.c **** *  1 - sensor is active.
1099:.\Generated_Source\PSoC4/CapSense_CSHL.c **** * 
1100:.\Generated_Source\PSoC4/CapSense_CSHL.c **** * Side Effects:
1101:.\Generated_Source\PSoC4/CapSense_CSHL.c **** *  None
1102:.\Generated_Source\PSoC4/CapSense_CSHL.c **** *
1103:.\Generated_Source\PSoC4/CapSense_CSHL.c **** *******************************************************************************/
1104:.\Generated_Source\PSoC4/CapSense_CSHL.c **** uint32 CapSense_CheckIsSensorActive(uint32 sensor)
1105:.\Generated_Source\PSoC4/CapSense_CSHL.c **** {	
 1395              		.loc 1 1105 0
 1396              		.cfi_startproc
 1397 0000 80B5     		push	{r7, lr}
 1398              		.cfi_def_cfa_offset 8
 1399              		.cfi_offset 7, -8
 1400              		.cfi_offset 14, -4
 1401 0002 84B0     		sub	sp, sp, #16
 1402              		.cfi_def_cfa_offset 24
 1403 0004 00AF     		add	r7, sp, #0
 1404              		.cfi_def_cfa_register 7
 1405 0006 7860     		str	r0, [r7, #4]
1106:.\Generated_Source\PSoC4/CapSense_CSHL.c **** 	uint8 widget;
1107:.\Generated_Source\PSoC4/CapSense_CSHL.c **** 	uint8 debounce;
1108:.\Generated_Source\PSoC4/CapSense_CSHL.c **** 	uint8 debounceIndex;
1109:.\Generated_Source\PSoC4/CapSense_CSHL.c **** 
1110:.\Generated_Source\PSoC4/CapSense_CSHL.c **** 	uint8 fingerThreshold;
1111:.\Generated_Source\PSoC4/CapSense_CSHL.c **** 	uint8 hysteresis;
1112:.\Generated_Source\PSoC4/CapSense_CSHL.c **** 	static uint8 CapSense_debounceCounter[] = {
1113:.\Generated_Source\PSoC4/CapSense_CSHL.c ****     0u, 
1114:.\Generated_Source\PSoC4/CapSense_CSHL.c **** };
1115:.\Generated_Source\PSoC4/CapSense_CSHL.c **** 
1116:.\Generated_Source\PSoC4/CapSense_CSHL.c **** 
1117:.\Generated_Source\PSoC4/CapSense_CSHL.c **** 	
1118:.\Generated_Source\PSoC4/CapSense_CSHL.c ****     /* Prepare to find debounce counter index */
1119:.\Generated_Source\PSoC4/CapSense_CSHL.c ****     widget = CapSense_widgetNumber[sensor];
 1406              		.loc 1 1119 0
 1407 0008 0F23     		mov	r3, #15
 1408 000a FB18     		add	r3, r7, r3
 1409 000c 4449     		ldr	r1, .L101
 1410 000e 7A68     		ldr	r2, [r7, #4]
 1411 0010 8A18     		add	r2, r1, r2
 1412 0012 1278     		ldrb	r2, [r2]
 1413 0014 1A70     		strb	r2, [r3]
1120:.\Generated_Source\PSoC4/CapSense_CSHL.c **** 	
1121:.\Generated_Source\PSoC4/CapSense_CSHL.c ****     fingerThreshold = CapSense_fingerThreshold[widget];
 1414              		.loc 1 1121 0
 1415 0016 0F23     		mov	r3, #15
 1416 0018 FB18     		add	r3, r7, r3
 1417 001a 1A78     		ldrb	r2, [r3]
 1418 001c 0E23     		mov	r3, #14
 1419 001e FB18     		add	r3, r7, r3
 1420 0020 4049     		ldr	r1, .L101+4
 1421 0022 8A5C     		ldrb	r2, [r1, r2]
 1422 0024 1A70     		strb	r2, [r3]
1122:.\Generated_Source\PSoC4/CapSense_CSHL.c **** 	hysteresis = CapSense_hysteresis[widget];
 1423              		.loc 1 1122 0
 1424 0026 0F23     		mov	r3, #15
 1425 0028 FB18     		add	r3, r7, r3
 1426 002a 1A78     		ldrb	r2, [r3]
ARM GAS  C:\Users\sunyi\AppData\Local\Temp\ccDxWxH0.s 			page 46


 1427 002c 0D23     		mov	r3, #13
 1428 002e FB18     		add	r3, r7, r3
 1429 0030 3D49     		ldr	r1, .L101+8
 1430 0032 8A5C     		ldrb	r2, [r1, r2]
 1431 0034 1A70     		strb	r2, [r3]
1123:.\Generated_Source\PSoC4/CapSense_CSHL.c **** 	debounce = CapSense_debounce[widget];	
 1432              		.loc 1 1123 0
 1433 0036 0F23     		mov	r3, #15
 1434 0038 FB18     		add	r3, r7, r3
 1435 003a 1A78     		ldrb	r2, [r3]
 1436 003c 0C23     		mov	r3, #12
 1437 003e FB18     		add	r3, r7, r3
 1438 0040 3A49     		ldr	r1, .L101+12
 1439 0042 8A5C     		ldrb	r2, [r1, r2]
 1440 0044 1A70     		strb	r2, [r3]
1124:.\Generated_Source\PSoC4/CapSense_CSHL.c **** 	
1125:.\Generated_Source\PSoC4/CapSense_CSHL.c **** 	    debounceIndex = CapSense_UNUSED_DEBOUNCE_COUNTER_INDEX;
 1441              		.loc 1 1125 0
 1442 0046 0B23     		mov	r3, #11
 1443 0048 FB18     		add	r3, r7, r3
 1444 004a 0022     		mov	r2, #0
 1445 004c 1A70     		strb	r2, [r3]
1126:.\Generated_Source\PSoC4/CapSense_CSHL.c ****     CapSense_debounceCounter[debounceIndex] = 1u;
 1446              		.loc 1 1126 0
 1447 004e 0B23     		mov	r3, #11
 1448 0050 FB18     		add	r3, r7, r3
 1449 0052 1B78     		ldrb	r3, [r3]
 1450 0054 364A     		ldr	r2, .L101+16
 1451 0056 0121     		mov	r1, #1
 1452 0058 D154     		strb	r1, [r2, r3]
1127:.\Generated_Source\PSoC4/CapSense_CSHL.c **** 
1128:.\Generated_Source\PSoC4/CapSense_CSHL.c **** 	
1129:.\Generated_Source\PSoC4/CapSense_CSHL.c ****     /* Was on */
1130:.\Generated_Source\PSoC4/CapSense_CSHL.c ****     if (0u != CapSense_GetBitValue(CapSense_sensorOnMask, sensor))
 1453              		.loc 1 1130 0
 1454 005a 364A     		ldr	r2, .L101+20
 1455 005c 7B68     		ldr	r3, [r7, #4]
 1456 005e 101C     		mov	r0, r2
 1457 0060 191C     		mov	r1, r3
 1458 0062 FFF7FEFF 		bl	CapSense_GetBitValue
 1459 0066 031E     		sub	r3, r0, #0
 1460 0068 1DD0     		beq	.L93
1131:.\Generated_Source\PSoC4/CapSense_CSHL.c ****     {
1132:.\Generated_Source\PSoC4/CapSense_CSHL.c ****         /* Hysteresis minus */
1133:.\Generated_Source\PSoC4/CapSense_CSHL.c ****         if (CapSense_sensorSignal[sensor] < (fingerThreshold - hysteresis))
 1461              		.loc 1 1133 0
 1462 006a 334A     		ldr	r2, .L101+24
 1463 006c 7B68     		ldr	r3, [r7, #4]
 1464 006e D318     		add	r3, r2, r3
 1465 0070 1B78     		ldrb	r3, [r3]
 1466 0072 191C     		mov	r1, r3
 1467 0074 0E23     		mov	r3, #14
 1468 0076 FB18     		add	r3, r7, r3
 1469 0078 1A78     		ldrb	r2, [r3]
 1470 007a 0D23     		mov	r3, #13
 1471 007c FB18     		add	r3, r7, r3
 1472 007e 1B78     		ldrb	r3, [r3]
ARM GAS  C:\Users\sunyi\AppData\Local\Temp\ccDxWxH0.s 			page 47


 1473 0080 D31A     		sub	r3, r2, r3
 1474 0082 9942     		cmp	r1, r3
 1475 0084 3DDA     		bge	.L95
1134:.\Generated_Source\PSoC4/CapSense_CSHL.c ****         {
1135:.\Generated_Source\PSoC4/CapSense_CSHL.c **** 	   		CapSense_SetBitValue(CapSense_sensorOnMask, sensor, 0u);
 1476              		.loc 1 1135 0
 1477 0086 2B4A     		ldr	r2, .L101+20
 1478 0088 7B68     		ldr	r3, [r7, #4]
 1479 008a 101C     		mov	r0, r2
 1480 008c 191C     		mov	r1, r3
 1481 008e 0022     		mov	r2, #0
 1482 0090 FFF7FEFF 		bl	CapSense_SetBitValue
1136:.\Generated_Source\PSoC4/CapSense_CSHL.c **** 			/* Sensor inactive - reset Debounce counter */
1137:.\Generated_Source\PSoC4/CapSense_CSHL.c ****             CapSense_debounceCounter[debounceIndex] = debounce;
 1483              		.loc 1 1137 0
 1484 0094 0B23     		mov	r3, #11
 1485 0096 FB18     		add	r3, r7, r3
 1486 0098 1B78     		ldrb	r3, [r3]
 1487 009a 254A     		ldr	r2, .L101+16
 1488 009c 0C21     		mov	r1, #12
 1489 009e 7918     		add	r1, r7, r1
 1490 00a0 0978     		ldrb	r1, [r1]
 1491 00a2 D154     		strb	r1, [r2, r3]
 1492 00a4 2DE0     		b	.L95
 1493              	.L93:
1138:.\Generated_Source\PSoC4/CapSense_CSHL.c ****         }
1139:.\Generated_Source\PSoC4/CapSense_CSHL.c ****     }
1140:.\Generated_Source\PSoC4/CapSense_CSHL.c ****     else    /* Was off */
1141:.\Generated_Source\PSoC4/CapSense_CSHL.c ****     {
1142:.\Generated_Source\PSoC4/CapSense_CSHL.c ****         /* Hysteresis plus */
1143:.\Generated_Source\PSoC4/CapSense_CSHL.c ****         if (CapSense_sensorSignal[sensor] >= (fingerThreshold + hysteresis))
 1494              		.loc 1 1143 0
 1495 00a6 244A     		ldr	r2, .L101+24
 1496 00a8 7B68     		ldr	r3, [r7, #4]
 1497 00aa D318     		add	r3, r2, r3
 1498 00ac 1B78     		ldrb	r3, [r3]
 1499 00ae 191C     		mov	r1, r3
 1500 00b0 0E23     		mov	r3, #14
 1501 00b2 FB18     		add	r3, r7, r3
 1502 00b4 1A78     		ldrb	r2, [r3]
 1503 00b6 0D23     		mov	r3, #13
 1504 00b8 FB18     		add	r3, r7, r3
 1505 00ba 1B78     		ldrb	r3, [r3]
 1506 00bc D318     		add	r3, r2, r3
 1507 00be 9942     		cmp	r1, r3
 1508 00c0 17DB     		blt	.L96
1144:.\Generated_Source\PSoC4/CapSense_CSHL.c ****         {
1145:.\Generated_Source\PSoC4/CapSense_CSHL.c **** 			CapSense_debounceCounter[debounceIndex]--;
 1509              		.loc 1 1145 0
 1510 00c2 0B23     		mov	r3, #11
 1511 00c4 FB18     		add	r3, r7, r3
 1512 00c6 1B78     		ldrb	r3, [r3]
 1513 00c8 194A     		ldr	r2, .L101+16
 1514 00ca D25C     		ldrb	r2, [r2, r3]
 1515 00cc 013A     		sub	r2, r2, #1
 1516 00ce D1B2     		uxtb	r1, r2
 1517 00d0 174A     		ldr	r2, .L101+16
ARM GAS  C:\Users\sunyi\AppData\Local\Temp\ccDxWxH0.s 			page 48


 1518 00d2 D154     		strb	r1, [r2, r3]
1146:.\Generated_Source\PSoC4/CapSense_CSHL.c ****             /* Sensor active, decrement debounce counter */
1147:.\Generated_Source\PSoC4/CapSense_CSHL.c ****             if(CapSense_debounceCounter[debounceIndex] == 0u)
 1519              		.loc 1 1147 0
 1520 00d4 0B23     		mov	r3, #11
 1521 00d6 FB18     		add	r3, r7, r3
 1522 00d8 1B78     		ldrb	r3, [r3]
 1523 00da 154A     		ldr	r2, .L101+16
 1524 00dc D35C     		ldrb	r3, [r2, r3]
 1525 00de 002B     		cmp	r3, #0
 1526 00e0 0FD1     		bne	.L95
1148:.\Generated_Source\PSoC4/CapSense_CSHL.c ****             {
1149:.\Generated_Source\PSoC4/CapSense_CSHL.c ****                 CapSense_SetBitValue(CapSense_sensorOnMask, sensor, 1u); 
 1527              		.loc 1 1149 0
 1528 00e2 144A     		ldr	r2, .L101+20
 1529 00e4 7B68     		ldr	r3, [r7, #4]
 1530 00e6 101C     		mov	r0, r2
 1531 00e8 191C     		mov	r1, r3
 1532 00ea 0122     		mov	r2, #1
 1533 00ec FFF7FEFF 		bl	CapSense_SetBitValue
 1534 00f0 07E0     		b	.L95
 1535              	.L96:
1150:.\Generated_Source\PSoC4/CapSense_CSHL.c ****             }
1151:.\Generated_Source\PSoC4/CapSense_CSHL.c ****         }
1152:.\Generated_Source\PSoC4/CapSense_CSHL.c ****         else
1153:.\Generated_Source\PSoC4/CapSense_CSHL.c ****         {
1154:.\Generated_Source\PSoC4/CapSense_CSHL.c ****             /* Sensor inactive - reset Debounce counter */
1155:.\Generated_Source\PSoC4/CapSense_CSHL.c ****             CapSense_debounceCounter[debounceIndex] = debounce;
 1536              		.loc 1 1155 0
 1537 00f2 0B23     		mov	r3, #11
 1538 00f4 FB18     		add	r3, r7, r3
 1539 00f6 1B78     		ldrb	r3, [r3]
 1540 00f8 0D4A     		ldr	r2, .L101+16
 1541 00fa 0C21     		mov	r1, #12
 1542 00fc 7918     		add	r1, r7, r1
 1543 00fe 0978     		ldrb	r1, [r1]
 1544 0100 D154     		strb	r1, [r2, r3]
 1545              	.L95:
1156:.\Generated_Source\PSoC4/CapSense_CSHL.c ****         }
1157:.\Generated_Source\PSoC4/CapSense_CSHL.c ****     }
1158:.\Generated_Source\PSoC4/CapSense_CSHL.c ****     
1159:.\Generated_Source\PSoC4/CapSense_CSHL.c ****     return ((uint32)((0u != CapSense_GetBitValue(CapSense_sensorOnMask, sensor)) ? 1u : 0u));
 1546              		.loc 1 1159 0
 1547 0102 0C4A     		ldr	r2, .L101+20
 1548 0104 7B68     		ldr	r3, [r7, #4]
 1549 0106 101C     		mov	r0, r2
 1550 0108 191C     		mov	r1, r3
 1551 010a FFF7FEFF 		bl	CapSense_GetBitValue
 1552 010e 031E     		sub	r3, r0, #0
 1553 0110 01D0     		beq	.L98
 1554              		.loc 1 1159 0 is_stmt 0 discriminator 1
 1555 0112 0123     		mov	r3, #1
 1556 0114 00E0     		b	.L99
 1557              	.L98:
 1558              		.loc 1 1159 0 discriminator 2
 1559 0116 0023     		mov	r3, #0
 1560              	.L99:
ARM GAS  C:\Users\sunyi\AppData\Local\Temp\ccDxWxH0.s 			page 49


1160:.\Generated_Source\PSoC4/CapSense_CSHL.c **** }
 1561              		.loc 1 1160 0 is_stmt 1 discriminator 4
 1562 0118 181C     		mov	r0, r3
 1563 011a BD46     		mov	sp, r7
 1564 011c 04B0     		add	sp, sp, #16
 1565              		@ sp needed
 1566 011e 80BD     		pop	{r7, pc}
 1567              	.L102:
 1568              		.align	2
 1569              	.L101:
 1570 0120 00000000 		.word	CapSense_widgetNumber
 1571 0124 00000000 		.word	CapSense_fingerThreshold
 1572 0128 00000000 		.word	CapSense_hysteresis
 1573 012c 00000000 		.word	CapSense_debounce
 1574 0130 20000000 		.word	CapSense_debounceCounter.5379
 1575 0134 00000000 		.word	CapSense_sensorOnMask
 1576 0138 00000000 		.word	CapSense_sensorSignal
 1577              		.cfi_endproc
 1578              	.LFE57:
 1579              		.size	CapSense_CheckIsSensorActive, .-CapSense_CheckIsSensorActive
 1580              		.section	.text.CapSense_CheckIsWidgetActive,"ax",%progbits
 1581              		.align	2
 1582              		.global	CapSense_CheckIsWidgetActive
 1583              		.code	16
 1584              		.thumb_func
 1585              		.type	CapSense_CheckIsWidgetActive, %function
 1586              	CapSense_CheckIsWidgetActive:
 1587              	.LFB58:
1161:.\Generated_Source\PSoC4/CapSense_CSHL.c **** 
1162:.\Generated_Source\PSoC4/CapSense_CSHL.c **** 
1163:.\Generated_Source\PSoC4/CapSense_CSHL.c **** /*******************************************************************************
1164:.\Generated_Source\PSoC4/CapSense_CSHL.c **** * Function Name: CapSense_CheckIsWidgetActive
1165:.\Generated_Source\PSoC4/CapSense_CSHL.c **** ********************************************************************************
1166:.\Generated_Source\PSoC4/CapSense_CSHL.c **** *
1167:.\Generated_Source\PSoC4/CapSense_CSHL.c **** * Summary:
1168:.\Generated_Source\PSoC4/CapSense_CSHL.c **** *  Compares the CapSense_sensorSignal[] array element to the finger threshold of 
1169:.\Generated_Source\PSoC4/CapSense_CSHL.c **** * the widget it belongs to. The hysteresis and debounce are taken into account. 
1170:.\Generated_Source\PSoC4/CapSense_CSHL.c **** * The hysteresis is added or subtracted from the finger threshold based on whether
1171:.\Generated_Source\PSoC4/CapSense_CSHL.c **** *  the sensor is currently active. If the sensor is active, the threshold is 
1172:.\Generated_Source\PSoC4/CapSense_CSHL.c **** *  lowered by the hysteresis amount. If the sensor is inactive, the threshold 
1173:.\Generated_Source\PSoC4/CapSense_CSHL.c **** *  is raised by the hysteresis amount. 
1174:.\Generated_Source\PSoC4/CapSense_CSHL.c **** * The debounce counter added to the sensor active transition. 
1175:.\Generated_Source\PSoC4/CapSense_CSHL.c **** * This function updates CapSense_sensorOnMask[] array element
1176:.\Generated_Source\PSoC4/CapSense_CSHL.c **** *
1177:.\Generated_Source\PSoC4/CapSense_CSHL.c **** * Parameters:
1178:.\Generated_Source\PSoC4/CapSense_CSHL.c **** *  widget:  widget number.
1179:.\Generated_Source\PSoC4/CapSense_CSHL.c **** *
1180:.\Generated_Source\PSoC4/CapSense_CSHL.c **** * Return:
1181:.\Generated_Source\PSoC4/CapSense_CSHL.c **** *  Returns widget sensor state 1 if one or more sensors within widget is/are 
1182:.\Generated_Source\PSoC4/CapSense_CSHL.c **** *  active, 0 if all sensors within widget are inactive.
1183:.\Generated_Source\PSoC4/CapSense_CSHL.c **** *
1184:.\Generated_Source\PSoC4/CapSense_CSHL.c **** * Global Variables:
1185:.\Generated_Source\PSoC4/CapSense_CSHL.c **** *  rawDataIndex[]: Contains the  1st sensor position in the widget
1186:.\Generated_Source\PSoC4/CapSense_CSHL.c **** * 
1187:.\Generated_Source\PSoC4/CapSense_CSHL.c **** * Side Effects:
1188:.\Generated_Source\PSoC4/CapSense_CSHL.c **** *  None
1189:.\Generated_Source\PSoC4/CapSense_CSHL.c **** *
ARM GAS  C:\Users\sunyi\AppData\Local\Temp\ccDxWxH0.s 			page 50


1190:.\Generated_Source\PSoC4/CapSense_CSHL.c **** *******************************************************************************/
1191:.\Generated_Source\PSoC4/CapSense_CSHL.c **** uint32 CapSense_CheckIsWidgetActive(uint32 widget)
1192:.\Generated_Source\PSoC4/CapSense_CSHL.c **** {
 1588              		.loc 1 1192 0
 1589              		.cfi_startproc
 1590 0000 80B5     		push	{r7, lr}
 1591              		.cfi_def_cfa_offset 8
 1592              		.cfi_offset 7, -8
 1593              		.cfi_offset 14, -4
 1594 0002 86B0     		sub	sp, sp, #24
 1595              		.cfi_def_cfa_offset 32
 1596 0004 00AF     		add	r7, sp, #0
 1597              		.cfi_def_cfa_register 7
 1598 0006 7860     		str	r0, [r7, #4]
1193:.\Generated_Source\PSoC4/CapSense_CSHL.c ****     uint32 rawIndex = (uint32)CapSense_rawDataIndex[widget];
 1599              		.loc 1 1193 0
 1600 0008 0023     		mov	r3, #0
 1601 000a 7B61     		str	r3, [r7, #20]
1194:.\Generated_Source\PSoC4/CapSense_CSHL.c ****     uint32 numOfSensors = (uint32)CapSense_numberOfSensors[widget] + rawIndex;
 1602              		.loc 1 1194 0
 1603 000c 0523     		mov	r3, #5
 1604 000e 1A1C     		mov	r2, r3
 1605 0010 7B69     		ldr	r3, [r7, #20]
 1606 0012 D318     		add	r3, r2, r3
 1607 0014 FB60     		str	r3, [r7, #12]
1195:.\Generated_Source\PSoC4/CapSense_CSHL.c ****     uint32 state = 0u;
 1608              		.loc 1 1195 0
 1609 0016 0023     		mov	r3, #0
 1610 0018 3B61     		str	r3, [r7, #16]
 1611              	.L105:
1196:.\Generated_Source\PSoC4/CapSense_CSHL.c **** 
1197:.\Generated_Source\PSoC4/CapSense_CSHL.c ****     /* Check all sensors of widget */
1198:.\Generated_Source\PSoC4/CapSense_CSHL.c ****     do
1199:.\Generated_Source\PSoC4/CapSense_CSHL.c ****     {
1200:.\Generated_Source\PSoC4/CapSense_CSHL.c ****         if(CapSense_CheckIsSensorActive((uint32)rawIndex) != 0u)
 1612              		.loc 1 1200 0
 1613 001a 7B69     		ldr	r3, [r7, #20]
 1614 001c 181C     		mov	r0, r3
 1615 001e FFF7FEFF 		bl	CapSense_CheckIsSensorActive
 1616 0022 031E     		sub	r3, r0, #0
 1617 0024 01D0     		beq	.L104
1201:.\Generated_Source\PSoC4/CapSense_CSHL.c ****         {
1202:.\Generated_Source\PSoC4/CapSense_CSHL.c ****             state = CapSense_SENSOR_IS_ACTIVE;
 1618              		.loc 1 1202 0
 1619 0026 0123     		mov	r3, #1
 1620 0028 3B61     		str	r3, [r7, #16]
 1621              	.L104:
1203:.\Generated_Source\PSoC4/CapSense_CSHL.c ****         }
1204:.\Generated_Source\PSoC4/CapSense_CSHL.c ****         rawIndex++;
 1622              		.loc 1 1204 0
 1623 002a 7B69     		ldr	r3, [r7, #20]
 1624 002c 0133     		add	r3, r3, #1
 1625 002e 7B61     		str	r3, [r7, #20]
1205:.\Generated_Source\PSoC4/CapSense_CSHL.c ****     }
1206:.\Generated_Source\PSoC4/CapSense_CSHL.c ****     while(rawIndex < numOfSensors);
 1626              		.loc 1 1206 0
 1627 0030 7A69     		ldr	r2, [r7, #20]
ARM GAS  C:\Users\sunyi\AppData\Local\Temp\ccDxWxH0.s 			page 51


 1628 0032 FB68     		ldr	r3, [r7, #12]
 1629 0034 9A42     		cmp	r2, r3
 1630 0036 F0D3     		bcc	.L105
1207:.\Generated_Source\PSoC4/CapSense_CSHL.c ****     
1208:.\Generated_Source\PSoC4/CapSense_CSHL.c **** 
1209:.\Generated_Source\PSoC4/CapSense_CSHL.c ****     
1210:.\Generated_Source\PSoC4/CapSense_CSHL.c ****     return state;
 1631              		.loc 1 1210 0
 1632 0038 3B69     		ldr	r3, [r7, #16]
1211:.\Generated_Source\PSoC4/CapSense_CSHL.c **** }
 1633              		.loc 1 1211 0
 1634 003a 181C     		mov	r0, r3
 1635 003c BD46     		mov	sp, r7
 1636 003e 06B0     		add	sp, sp, #24
 1637              		@ sp needed
 1638 0040 80BD     		pop	{r7, pc}
 1639              		.cfi_endproc
 1640              	.LFE58:
 1641              		.size	CapSense_CheckIsWidgetActive, .-CapSense_CheckIsWidgetActive
 1642 0042 C046     		.section	.text.CapSense_CheckIsAnyWidgetActive,"ax",%progbits
 1643              		.align	2
 1644              		.global	CapSense_CheckIsAnyWidgetActive
 1645              		.code	16
 1646              		.thumb_func
 1647              		.type	CapSense_CheckIsAnyWidgetActive, %function
 1648              	CapSense_CheckIsAnyWidgetActive:
 1649              	.LFB59:
1212:.\Generated_Source\PSoC4/CapSense_CSHL.c **** 
1213:.\Generated_Source\PSoC4/CapSense_CSHL.c **** 
1214:.\Generated_Source\PSoC4/CapSense_CSHL.c **** /*******************************************************************************
1215:.\Generated_Source\PSoC4/CapSense_CSHL.c **** * Function Name: CapSense_CheckIsAnyWidgetActive
1216:.\Generated_Source\PSoC4/CapSense_CSHL.c **** ********************************************************************************
1217:.\Generated_Source\PSoC4/CapSense_CSHL.c **** *
1218:.\Generated_Source\PSoC4/CapSense_CSHL.c **** * Summary:
1219:.\Generated_Source\PSoC4/CapSense_CSHL.c **** *  Compares all the sensors of the CapSense_Signal[] array to their finger 
1220:.\Generated_Source\PSoC4/CapSense_CSHL.c **** *  threshold. Calls CapSense_CheckIsWidgetActive() for each widget so 
1221:.\Generated_Source\PSoC4/CapSense_CSHL.c **** *  the CapSense_sensorOnMask[] array is up to date after calling this 
1222:.\Generated_Source\PSoC4/CapSense_CSHL.c **** *  function.
1223:.\Generated_Source\PSoC4/CapSense_CSHL.c **** *
1224:.\Generated_Source\PSoC4/CapSense_CSHL.c **** * Parameters:
1225:.\Generated_Source\PSoC4/CapSense_CSHL.c **** *  widget:  widget number.
1226:.\Generated_Source\PSoC4/CapSense_CSHL.c **** *
1227:.\Generated_Source\PSoC4/CapSense_CSHL.c **** * Return:
1228:.\Generated_Source\PSoC4/CapSense_CSHL.c **** *  Returns 1 if any widget is active, 0 none of widgets are active.
1229:.\Generated_Source\PSoC4/CapSense_CSHL.c **** *
1230:.\Generated_Source\PSoC4/CapSense_CSHL.c **** * Global Variables:
1231:.\Generated_Source\PSoC4/CapSense_CSHL.c **** *  None
1232:.\Generated_Source\PSoC4/CapSense_CSHL.c **** * 
1233:.\Generated_Source\PSoC4/CapSense_CSHL.c **** * Side Effects:
1234:.\Generated_Source\PSoC4/CapSense_CSHL.c **** *  None
1235:.\Generated_Source\PSoC4/CapSense_CSHL.c **** *
1236:.\Generated_Source\PSoC4/CapSense_CSHL.c **** *******************************************************************************/
1237:.\Generated_Source\PSoC4/CapSense_CSHL.c **** uint32 CapSense_CheckIsAnyWidgetActive(void)
1238:.\Generated_Source\PSoC4/CapSense_CSHL.c **** {
 1650              		.loc 1 1238 0
 1651              		.cfi_startproc
 1652 0000 80B5     		push	{r7, lr}
ARM GAS  C:\Users\sunyi\AppData\Local\Temp\ccDxWxH0.s 			page 52


 1653              		.cfi_def_cfa_offset 8
 1654              		.cfi_offset 7, -8
 1655              		.cfi_offset 14, -4
 1656 0002 82B0     		sub	sp, sp, #8
 1657              		.cfi_def_cfa_offset 16
 1658 0004 00AF     		add	r7, sp, #0
 1659              		.cfi_def_cfa_register 7
1239:.\Generated_Source\PSoC4/CapSense_CSHL.c **** 
1240:.\Generated_Source\PSoC4/CapSense_CSHL.c **** 	    uint32 i;
1241:.\Generated_Source\PSoC4/CapSense_CSHL.c ****     uint32 state = 0u;
 1660              		.loc 1 1241 0
 1661 0006 0023     		mov	r3, #0
 1662 0008 3B60     		str	r3, [r7]
1242:.\Generated_Source\PSoC4/CapSense_CSHL.c ****     
1243:.\Generated_Source\PSoC4/CapSense_CSHL.c ****     for(i = 0u; i < CapSense_TOTAL_WIDGET_COUNT; i++)
 1663              		.loc 1 1243 0
 1664 000a 0023     		mov	r3, #0
 1665 000c 7B60     		str	r3, [r7, #4]
 1666 000e 0AE0     		b	.L108
 1667              	.L110:
1244:.\Generated_Source\PSoC4/CapSense_CSHL.c ****     {
1245:.\Generated_Source\PSoC4/CapSense_CSHL.c ****         if (CapSense_CheckIsWidgetActive(i) != 0u)
 1668              		.loc 1 1245 0
 1669 0010 7B68     		ldr	r3, [r7, #4]
 1670 0012 181C     		mov	r0, r3
 1671 0014 FFF7FEFF 		bl	CapSense_CheckIsWidgetActive
 1672 0018 031E     		sub	r3, r0, #0
 1673 001a 01D0     		beq	.L109
1246:.\Generated_Source\PSoC4/CapSense_CSHL.c ****         {
1247:.\Generated_Source\PSoC4/CapSense_CSHL.c ****             state = CapSense_WIDGET_IS_ACTIVE;
 1674              		.loc 1 1247 0
 1675 001c 0123     		mov	r3, #1
 1676 001e 3B60     		str	r3, [r7]
 1677              	.L109:
1243:.\Generated_Source\PSoC4/CapSense_CSHL.c ****     {
 1678              		.loc 1 1243 0 discriminator 2
 1679 0020 7B68     		ldr	r3, [r7, #4]
 1680 0022 0133     		add	r3, r3, #1
 1681 0024 7B60     		str	r3, [r7, #4]
 1682              	.L108:
1243:.\Generated_Source\PSoC4/CapSense_CSHL.c ****     {
 1683              		.loc 1 1243 0 is_stmt 0 discriminator 1
 1684 0026 7B68     		ldr	r3, [r7, #4]
 1685 0028 002B     		cmp	r3, #0
 1686 002a F1D0     		beq	.L110
1248:.\Generated_Source\PSoC4/CapSense_CSHL.c ****         }
1249:.\Generated_Source\PSoC4/CapSense_CSHL.c ****     }
1250:.\Generated_Source\PSoC4/CapSense_CSHL.c ****     
1251:.\Generated_Source\PSoC4/CapSense_CSHL.c **** 
1252:.\Generated_Source\PSoC4/CapSense_CSHL.c **** 
1253:.\Generated_Source\PSoC4/CapSense_CSHL.c ****     return state;
 1687              		.loc 1 1253 0 is_stmt 1
 1688 002c 3B68     		ldr	r3, [r7]
1254:.\Generated_Source\PSoC4/CapSense_CSHL.c **** }
 1689              		.loc 1 1254 0
 1690 002e 181C     		mov	r0, r3
 1691 0030 BD46     		mov	sp, r7
ARM GAS  C:\Users\sunyi\AppData\Local\Temp\ccDxWxH0.s 			page 53


 1692 0032 02B0     		add	sp, sp, #8
 1693              		@ sp needed
 1694 0034 80BD     		pop	{r7, pc}
 1695              		.cfi_endproc
 1696              	.LFE59:
 1697              		.size	CapSense_CheckIsAnyWidgetActive, .-CapSense_CheckIsAnyWidgetActive
 1698 0036 C046     		.section	.text.CapSense_EnableWidget,"ax",%progbits
 1699              		.align	2
 1700              		.global	CapSense_EnableWidget
 1701              		.code	16
 1702              		.thumb_func
 1703              		.type	CapSense_EnableWidget, %function
 1704              	CapSense_EnableWidget:
 1705              	.LFB60:
1255:.\Generated_Source\PSoC4/CapSense_CSHL.c **** 
1256:.\Generated_Source\PSoC4/CapSense_CSHL.c **** 
1257:.\Generated_Source\PSoC4/CapSense_CSHL.c **** /*******************************************************************************
1258:.\Generated_Source\PSoC4/CapSense_CSHL.c **** * Function Name: CapSense_EnableWidget
1259:.\Generated_Source\PSoC4/CapSense_CSHL.c **** ********************************************************************************
1260:.\Generated_Source\PSoC4/CapSense_CSHL.c **** *
1261:.\Generated_Source\PSoC4/CapSense_CSHL.c **** * Summary:
1262:.\Generated_Source\PSoC4/CapSense_CSHL.c **** *  Enables all the widget elements (sensors) to the scanning process.
1263:.\Generated_Source\PSoC4/CapSense_CSHL.c **** *
1264:.\Generated_Source\PSoC4/CapSense_CSHL.c **** * Parameters:
1265:.\Generated_Source\PSoC4/CapSense_CSHL.c **** *  widget:  widget number.
1266:.\Generated_Source\PSoC4/CapSense_CSHL.c **** *
1267:.\Generated_Source\PSoC4/CapSense_CSHL.c **** * Return:
1268:.\Generated_Source\PSoC4/CapSense_CSHL.c **** *  None
1269:.\Generated_Source\PSoC4/CapSense_CSHL.c **** *
1270:.\Generated_Source\PSoC4/CapSense_CSHL.c **** * Global Variables:
1271:.\Generated_Source\PSoC4/CapSense_CSHL.c **** *  CapSense_sensorEnableMask[] - used to store the sensor scanning 
1272:.\Generated_Source\PSoC4/CapSense_CSHL.c **** *  state.
1273:.\Generated_Source\PSoC4/CapSense_CSHL.c **** *  CapSense_sensorEnableMask[0] contains the masked bits for sensors 
1274:.\Generated_Source\PSoC4/CapSense_CSHL.c **** *  0 through 7 (sensor 0 is bit 0, sensor 1 is bit 1).
1275:.\Generated_Source\PSoC4/CapSense_CSHL.c **** *  CapSense_sensorEnableMask[1] contains the masked bits for 
1276:.\Generated_Source\PSoC4/CapSense_CSHL.c **** *  sensors 8 through 15 (if needed), and so on.
1277:.\Generated_Source\PSoC4/CapSense_CSHL.c **** *  0 - sensor doesn't scan by CapSense_ScanEnabledWidgets().
1278:.\Generated_Source\PSoC4/CapSense_CSHL.c **** *  1 - sensor scans by CapSense_ScanEnabledWidgets().
1279:.\Generated_Source\PSoC4/CapSense_CSHL.c **** * 
1280:.\Generated_Source\PSoC4/CapSense_CSHL.c **** * Side Effects:
1281:.\Generated_Source\PSoC4/CapSense_CSHL.c **** *  None
1282:.\Generated_Source\PSoC4/CapSense_CSHL.c **** *
1283:.\Generated_Source\PSoC4/CapSense_CSHL.c **** *******************************************************************************/
1284:.\Generated_Source\PSoC4/CapSense_CSHL.c **** void CapSense_EnableWidget(uint32 widget)
1285:.\Generated_Source\PSoC4/CapSense_CSHL.c **** {
 1706              		.loc 1 1285 0
 1707              		.cfi_startproc
 1708 0000 80B5     		push	{r7, lr}
 1709              		.cfi_def_cfa_offset 8
 1710              		.cfi_offset 7, -8
 1711              		.cfi_offset 14, -4
 1712 0002 84B0     		sub	sp, sp, #16
 1713              		.cfi_def_cfa_offset 24
 1714 0004 00AF     		add	r7, sp, #0
 1715              		.cfi_def_cfa_register 7
 1716 0006 7860     		str	r0, [r7, #4]
1286:.\Generated_Source\PSoC4/CapSense_CSHL.c **** 
ARM GAS  C:\Users\sunyi\AppData\Local\Temp\ccDxWxH0.s 			page 54


1287:.\Generated_Source\PSoC4/CapSense_CSHL.c ****     uint8 rawIndex = CapSense_rawDataIndex[widget];
 1717              		.loc 1 1287 0
 1718 0008 0F23     		mov	r3, #15
 1719 000a FB18     		add	r3, r7, r3
 1720 000c 0022     		mov	r2, #0
 1721 000e 1A70     		strb	r2, [r3]
1288:.\Generated_Source\PSoC4/CapSense_CSHL.c ****     uint8 numOfSensors = CapSense_numberOfSensors[widget] + rawIndex;
 1722              		.loc 1 1288 0
 1723 0010 0521     		mov	r1, #5
 1724 0012 0E23     		mov	r3, #14
 1725 0014 FB18     		add	r3, r7, r3
 1726 0016 0F22     		mov	r2, #15
 1727 0018 BA18     		add	r2, r7, r2
 1728 001a 1278     		ldrb	r2, [r2]
 1729 001c 8A18     		add	r2, r1, r2
 1730 001e 1A70     		strb	r2, [r3]
 1731              	.L113:
1289:.\Generated_Source\PSoC4/CapSense_CSHL.c ****     
1290:.\Generated_Source\PSoC4/CapSense_CSHL.c ****     /* Enable all sensors of widget */
1291:.\Generated_Source\PSoC4/CapSense_CSHL.c ****     do
1292:.\Generated_Source\PSoC4/CapSense_CSHL.c ****     {
1293:.\Generated_Source\PSoC4/CapSense_CSHL.c ****         CapSense_SetBitValue(CapSense_sensorEnableMask, (uint32)rawIndex, 1u);
 1732              		.loc 1 1293 0 discriminator 1
 1733 0020 0F23     		mov	r3, #15
 1734 0022 FB18     		add	r3, r7, r3
 1735 0024 1B78     		ldrb	r3, [r3]
 1736 0026 0C4A     		ldr	r2, .L114
 1737 0028 101C     		mov	r0, r2
 1738 002a 191C     		mov	r1, r3
 1739 002c 0122     		mov	r2, #1
 1740 002e FFF7FEFF 		bl	CapSense_SetBitValue
1294:.\Generated_Source\PSoC4/CapSense_CSHL.c ****         rawIndex++;
 1741              		.loc 1 1294 0 discriminator 1
 1742 0032 0F23     		mov	r3, #15
 1743 0034 FB18     		add	r3, r7, r3
 1744 0036 1A78     		ldrb	r2, [r3]
 1745 0038 0F23     		mov	r3, #15
 1746 003a FB18     		add	r3, r7, r3
 1747 003c 0132     		add	r2, r2, #1
 1748 003e 1A70     		strb	r2, [r3]
1295:.\Generated_Source\PSoC4/CapSense_CSHL.c ****     }
1296:.\Generated_Source\PSoC4/CapSense_CSHL.c ****     while(rawIndex < numOfSensors);
 1749              		.loc 1 1296 0 discriminator 1
 1750 0040 0F23     		mov	r3, #15
 1751 0042 FA18     		add	r2, r7, r3
 1752 0044 0E23     		mov	r3, #14
 1753 0046 FB18     		add	r3, r7, r3
 1754 0048 1278     		ldrb	r2, [r2]
 1755 004a 1B78     		ldrb	r3, [r3]
 1756 004c 9A42     		cmp	r2, r3
 1757 004e E7D3     		bcc	.L113
1297:.\Generated_Source\PSoC4/CapSense_CSHL.c **** }
 1758              		.loc 1 1297 0
 1759 0050 BD46     		mov	sp, r7
 1760 0052 04B0     		add	sp, sp, #16
 1761              		@ sp needed
 1762 0054 80BD     		pop	{r7, pc}
ARM GAS  C:\Users\sunyi\AppData\Local\Temp\ccDxWxH0.s 			page 55


 1763              	.L115:
 1764 0056 C046     		.align	2
 1765              	.L114:
 1766 0058 00000000 		.word	CapSense_sensorEnableMask
 1767              		.cfi_endproc
 1768              	.LFE60:
 1769              		.size	CapSense_EnableWidget, .-CapSense_EnableWidget
 1770              		.section	.text.CapSense_DisableWidget,"ax",%progbits
 1771              		.align	2
 1772              		.global	CapSense_DisableWidget
 1773              		.code	16
 1774              		.thumb_func
 1775              		.type	CapSense_DisableWidget, %function
 1776              	CapSense_DisableWidget:
 1777              	.LFB61:
1298:.\Generated_Source\PSoC4/CapSense_CSHL.c **** 
1299:.\Generated_Source\PSoC4/CapSense_CSHL.c **** 
1300:.\Generated_Source\PSoC4/CapSense_CSHL.c **** /*******************************************************************************
1301:.\Generated_Source\PSoC4/CapSense_CSHL.c **** * Function Name: CapSense_DisableWidget
1302:.\Generated_Source\PSoC4/CapSense_CSHL.c **** ********************************************************************************
1303:.\Generated_Source\PSoC4/CapSense_CSHL.c **** *
1304:.\Generated_Source\PSoC4/CapSense_CSHL.c **** * Summary:
1305:.\Generated_Source\PSoC4/CapSense_CSHL.c **** *  Disables all the widget elements (sensors) from the scanning process.
1306:.\Generated_Source\PSoC4/CapSense_CSHL.c **** *
1307:.\Generated_Source\PSoC4/CapSense_CSHL.c **** * Parameters:
1308:.\Generated_Source\PSoC4/CapSense_CSHL.c **** *  widget:  widget number.
1309:.\Generated_Source\PSoC4/CapSense_CSHL.c **** *
1310:.\Generated_Source\PSoC4/CapSense_CSHL.c **** * Return:
1311:.\Generated_Source\PSoC4/CapSense_CSHL.c **** *  None
1312:.\Generated_Source\PSoC4/CapSense_CSHL.c **** *
1313:.\Generated_Source\PSoC4/CapSense_CSHL.c **** * Global Variables:
1314:.\Generated_Source\PSoC4/CapSense_CSHL.c **** *  CapSense_sensorEnableMask[] - used to store the sensor scanning 
1315:.\Generated_Source\PSoC4/CapSense_CSHL.c **** *  state.
1316:.\Generated_Source\PSoC4/CapSense_CSHL.c **** *  CapSense_sensorEnableMask[0] contains the masked bits for sensors 
1317:.\Generated_Source\PSoC4/CapSense_CSHL.c **** *  0 through 7 (sensor 0 is bit 0, sensor 1 is bit 1).
1318:.\Generated_Source\PSoC4/CapSense_CSHL.c **** *  CapSense_sensorEnableMask[1] contains the masked bits for 
1319:.\Generated_Source\PSoC4/CapSense_CSHL.c **** *  sensors 8 through 15 (if needed), and so on.
1320:.\Generated_Source\PSoC4/CapSense_CSHL.c **** *  0 - sensor isn't scanned by CapSense_ScanEnabledWidgets().
1321:.\Generated_Source\PSoC4/CapSense_CSHL.c **** *  1 - sensor is scanned by CapSense_ScanEnabledWidgets().
1322:.\Generated_Source\PSoC4/CapSense_CSHL.c **** * 
1323:.\Generated_Source\PSoC4/CapSense_CSHL.c **** * Side Effects:
1324:.\Generated_Source\PSoC4/CapSense_CSHL.c **** *  None
1325:.\Generated_Source\PSoC4/CapSense_CSHL.c **** *
1326:.\Generated_Source\PSoC4/CapSense_CSHL.c **** *******************************************************************************/
1327:.\Generated_Source\PSoC4/CapSense_CSHL.c **** void CapSense_DisableWidget(uint32 widget)
1328:.\Generated_Source\PSoC4/CapSense_CSHL.c **** {
 1778              		.loc 1 1328 0
 1779              		.cfi_startproc
 1780 0000 80B5     		push	{r7, lr}
 1781              		.cfi_def_cfa_offset 8
 1782              		.cfi_offset 7, -8
 1783              		.cfi_offset 14, -4
 1784 0002 84B0     		sub	sp, sp, #16
 1785              		.cfi_def_cfa_offset 24
 1786 0004 00AF     		add	r7, sp, #0
 1787              		.cfi_def_cfa_register 7
 1788 0006 7860     		str	r0, [r7, #4]
ARM GAS  C:\Users\sunyi\AppData\Local\Temp\ccDxWxH0.s 			page 56


1329:.\Generated_Source\PSoC4/CapSense_CSHL.c ****     uint8 rawIndex = CapSense_rawDataIndex[widget];
 1789              		.loc 1 1329 0
 1790 0008 0F23     		mov	r3, #15
 1791 000a FB18     		add	r3, r7, r3
 1792 000c 0022     		mov	r2, #0
 1793 000e 1A70     		strb	r2, [r3]
1330:.\Generated_Source\PSoC4/CapSense_CSHL.c ****     uint8 numOfSensors = CapSense_numberOfSensors[widget] + rawIndex;
 1794              		.loc 1 1330 0
 1795 0010 0521     		mov	r1, #5
 1796 0012 0E23     		mov	r3, #14
 1797 0014 FB18     		add	r3, r7, r3
 1798 0016 0F22     		mov	r2, #15
 1799 0018 BA18     		add	r2, r7, r2
 1800 001a 1278     		ldrb	r2, [r2]
 1801 001c 8A18     		add	r2, r1, r2
 1802 001e 1A70     		strb	r2, [r3]
 1803              	.L117:
1331:.\Generated_Source\PSoC4/CapSense_CSHL.c ****    
1332:.\Generated_Source\PSoC4/CapSense_CSHL.c ****     /* Disable all sensors of widget */
1333:.\Generated_Source\PSoC4/CapSense_CSHL.c ****     do
1334:.\Generated_Source\PSoC4/CapSense_CSHL.c ****     {
1335:.\Generated_Source\PSoC4/CapSense_CSHL.c **** 
1336:.\Generated_Source\PSoC4/CapSense_CSHL.c ****         CapSense_SetBitValue(CapSense_sensorEnableMask, (uint32)rawIndex, 0u);
 1804              		.loc 1 1336 0 discriminator 1
 1805 0020 0F23     		mov	r3, #15
 1806 0022 FB18     		add	r3, r7, r3
 1807 0024 1B78     		ldrb	r3, [r3]
 1808 0026 0C4A     		ldr	r2, .L118
 1809 0028 101C     		mov	r0, r2
 1810 002a 191C     		mov	r1, r3
 1811 002c 0022     		mov	r2, #0
 1812 002e FFF7FEFF 		bl	CapSense_SetBitValue
1337:.\Generated_Source\PSoC4/CapSense_CSHL.c ****         rawIndex++;
 1813              		.loc 1 1337 0 discriminator 1
 1814 0032 0F23     		mov	r3, #15
 1815 0034 FB18     		add	r3, r7, r3
 1816 0036 1A78     		ldrb	r2, [r3]
 1817 0038 0F23     		mov	r3, #15
 1818 003a FB18     		add	r3, r7, r3
 1819 003c 0132     		add	r2, r2, #1
 1820 003e 1A70     		strb	r2, [r3]
1338:.\Generated_Source\PSoC4/CapSense_CSHL.c ****     }
1339:.\Generated_Source\PSoC4/CapSense_CSHL.c ****     while(rawIndex < numOfSensors);
 1821              		.loc 1 1339 0 discriminator 1
 1822 0040 0F23     		mov	r3, #15
 1823 0042 FA18     		add	r2, r7, r3
 1824 0044 0E23     		mov	r3, #14
 1825 0046 FB18     		add	r3, r7, r3
 1826 0048 1278     		ldrb	r2, [r2]
 1827 004a 1B78     		ldrb	r3, [r3]
 1828 004c 9A42     		cmp	r2, r3
 1829 004e E7D3     		bcc	.L117
1340:.\Generated_Source\PSoC4/CapSense_CSHL.c **** }
 1830              		.loc 1 1340 0
 1831 0050 BD46     		mov	sp, r7
 1832 0052 04B0     		add	sp, sp, #16
 1833              		@ sp needed
ARM GAS  C:\Users\sunyi\AppData\Local\Temp\ccDxWxH0.s 			page 57


 1834 0054 80BD     		pop	{r7, pc}
 1835              	.L119:
 1836 0056 C046     		.align	2
 1837              	.L118:
 1838 0058 00000000 		.word	CapSense_sensorEnableMask
 1839              		.cfi_endproc
 1840              	.LFE61:
 1841              		.size	CapSense_DisableWidget, .-CapSense_DisableWidget
 1842              		.section	.text.CapSense_FindMaximum,"ax",%progbits
 1843              		.align	2
 1844              		.global	CapSense_FindMaximum
 1845              		.code	16
 1846              		.thumb_func
 1847              		.type	CapSense_FindMaximum, %function
 1848              	CapSense_FindMaximum:
 1849              	.LFB62:
1341:.\Generated_Source\PSoC4/CapSense_CSHL.c **** 
1342:.\Generated_Source\PSoC4/CapSense_CSHL.c **** 
1343:.\Generated_Source\PSoC4/CapSense_CSHL.c **** #if(CapSense_TOTAL_CENTROIDS_BASIC_COUNT)
1344:.\Generated_Source\PSoC4/CapSense_CSHL.c ****     /*******************************************************************************
1345:.\Generated_Source\PSoC4/CapSense_CSHL.c ****     * Function Name: CapSense_FindMaximum
1346:.\Generated_Source\PSoC4/CapSense_CSHL.c ****     ********************************************************************************
1347:.\Generated_Source\PSoC4/CapSense_CSHL.c ****     *
1348:.\Generated_Source\PSoC4/CapSense_CSHL.c ****     * Summary:
1349:.\Generated_Source\PSoC4/CapSense_CSHL.c ****     *  Finds the index of the maximum element within a defined centroid. Checks 
1350:.\Generated_Source\PSoC4/CapSense_CSHL.c ****     *  CapSense_sensorSignal[] within a defined centroid and 
1351:.\Generated_Source\PSoC4/CapSense_CSHL.c ****     *  returns the index of the maximum element. The values below the finger threshold are 
1352:.\Generated_Source\PSoC4/CapSense_CSHL.c ****     *  ignored.
1353:.\Generated_Source\PSoC4/CapSense_CSHL.c ****     *  The centroid is defined by offset of the first element and a number of elements - count.
1354:.\Generated_Source\PSoC4/CapSense_CSHL.c ****     *  The diplexed centroid requires at least two consecutive elements above
1355:.\Generated_Source\PSoC4/CapSense_CSHL.c ****     *  FingerThreshold to find the index of the maximum element.
1356:.\Generated_Source\PSoC4/CapSense_CSHL.c ****     * 
1357:.\Generated_Source\PSoC4/CapSense_CSHL.c ****     * Parameters:
1358:.\Generated_Source\PSoC4/CapSense_CSHL.c ****     *  offset:  Start index of centroid in CapSense_sensorSignal[] array.
1359:.\Generated_Source\PSoC4/CapSense_CSHL.c ****     *  count:   number of elements within centroid.
1360:.\Generated_Source\PSoC4/CapSense_CSHL.c ****     *  fingerThreshold:  Finger threshold.
1361:.\Generated_Source\PSoC4/CapSense_CSHL.c ****     *  diplex:   pointer to diplex table.
1362:.\Generated_Source\PSoC4/CapSense_CSHL.c ****     * 
1363:.\Generated_Source\PSoC4/CapSense_CSHL.c ****     * Return:
1364:.\Generated_Source\PSoC4/CapSense_CSHL.c ****     *  Returns the index of the maximum element within a defined centroid.
1365:.\Generated_Source\PSoC4/CapSense_CSHL.c ****     *  If the index of the maximum element isn't found it returns 0xFF.
1366:.\Generated_Source\PSoC4/CapSense_CSHL.c **** 	*
1367:.\Generated_Source\PSoC4/CapSense_CSHL.c **** 	* Global Variables:
1368:.\Generated_Source\PSoC4/CapSense_CSHL.c **** 	*  CapSense_startOfSlider[] - contains the index of the first slider element
1369:.\Generated_Source\PSoC4/CapSense_CSHL.c **** 	* 
1370:.\Generated_Source\PSoC4/CapSense_CSHL.c **** 	* Side Effects: 
1371:.\Generated_Source\PSoC4/CapSense_CSHL.c **** 	*  None
1372:.\Generated_Source\PSoC4/CapSense_CSHL.c **** 	* 
1373:.\Generated_Source\PSoC4/CapSense_CSHL.c ****     *******************************************************************************/
1374:.\Generated_Source\PSoC4/CapSense_CSHL.c **** 	#if (CapSense_IS_DIPLEX_SLIDER)
1375:.\Generated_Source\PSoC4/CapSense_CSHL.c **** 		uint8 CapSense_FindMaximum(uint8 offset, uint8 count, uint8 fingerThreshold, const uint8 *diplex)
1376:.\Generated_Source\PSoC4/CapSense_CSHL.c **** 	#else 
1377:.\Generated_Source\PSoC4/CapSense_CSHL.c **** 		uint8 CapSense_FindMaximum(uint8 offset, uint8 count, uint8 fingerThreshold)
1378:.\Generated_Source\PSoC4/CapSense_CSHL.c **** 	#endif /* (CapSense_IS_DIPLEX_SLIDER) */
1379:.\Generated_Source\PSoC4/CapSense_CSHL.c ****     {
 1850              		.loc 1 1379 0
 1851              		.cfi_startproc
ARM GAS  C:\Users\sunyi\AppData\Local\Temp\ccDxWxH0.s 			page 58


 1852 0000 90B5     		push	{r4, r7, lr}
 1853              		.cfi_def_cfa_offset 12
 1854              		.cfi_offset 4, -12
 1855              		.cfi_offset 7, -8
 1856              		.cfi_offset 14, -4
 1857 0002 85B0     		sub	sp, sp, #20
 1858              		.cfi_def_cfa_offset 32
 1859 0004 00AF     		add	r7, sp, #0
 1860              		.cfi_def_cfa_register 7
 1861 0006 041C     		mov	r4, r0
 1862 0008 081C     		mov	r0, r1
 1863 000a 111C     		mov	r1, r2
 1864 000c FB1D     		add	r3, r7, #7
 1865 000e 221C     		add	r2, r4, #0
 1866 0010 1A70     		strb	r2, [r3]
 1867 0012 BB1D     		add	r3, r7, #6
 1868 0014 021C     		add	r2, r0, #0
 1869 0016 1A70     		strb	r2, [r3]
 1870 0018 7B1D     		add	r3, r7, #5
 1871 001a 0A1C     		add	r2, r1, #0
 1872 001c 1A70     		strb	r2, [r3]
1380:.\Generated_Source\PSoC4/CapSense_CSHL.c ****         uint8 i;
1381:.\Generated_Source\PSoC4/CapSense_CSHL.c ****         #if (CapSense_IS_DIPLEX_SLIDER)        
1382:.\Generated_Source\PSoC4/CapSense_CSHL.c ****             uint8 curPos = 0u;
1383:.\Generated_Source\PSoC4/CapSense_CSHL.c ****             /* No centroid at Start */
1384:.\Generated_Source\PSoC4/CapSense_CSHL.c ****             uint8 curCntrdSize = 0u;
1385:.\Generated_Source\PSoC4/CapSense_CSHL.c ****             uint8 curCtrdStartPos = CapSense_MAXIMUM_CENTROID;
1386:.\Generated_Source\PSoC4/CapSense_CSHL.c ****             /* Biggest centroid is zero */
1387:.\Generated_Source\PSoC4/CapSense_CSHL.c ****             uint8 biggestCtrdSize = 0u;
1388:.\Generated_Source\PSoC4/CapSense_CSHL.c ****             uint8 biggestCtrdStartPos = 0u;
1389:.\Generated_Source\PSoC4/CapSense_CSHL.c ****         #endif /* (CapSense_IS_DIPLEX_SLIDER) */
1390:.\Generated_Source\PSoC4/CapSense_CSHL.c ****         uint8 maximum = CapSense_MAXIMUM_CENTROID;
 1873              		.loc 1 1390 0
 1874 001e 0E23     		mov	r3, #14
 1875 0020 FB18     		add	r3, r7, r3
 1876 0022 FF22     		mov	r2, #255
 1877 0024 1A70     		strb	r2, [r3]
1391:.\Generated_Source\PSoC4/CapSense_CSHL.c **** 		
1392:.\Generated_Source\PSoC4/CapSense_CSHL.c ****         uint8 temp = 0u;
 1878              		.loc 1 1392 0
 1879 0026 0D23     		mov	r3, #13
 1880 0028 FB18     		add	r3, r7, r3
 1881 002a 0022     		mov	r2, #0
 1882 002c 1A70     		strb	r2, [r3]
1393:.\Generated_Source\PSoC4/CapSense_CSHL.c ****         uint8 *startOfSlider = &CapSense_sensorSignal[offset];
 1883              		.loc 1 1393 0
 1884 002e FB1D     		add	r3, r7, #7
 1885 0030 1A78     		ldrb	r2, [r3]
 1886 0032 204B     		ldr	r3, .L125
 1887 0034 D318     		add	r3, r2, r3
 1888 0036 BB60     		str	r3, [r7, #8]
1394:.\Generated_Source\PSoC4/CapSense_CSHL.c **** 
1395:.\Generated_Source\PSoC4/CapSense_CSHL.c ****         #if (CapSense_IS_DIPLEX_SLIDER)        
1396:.\Generated_Source\PSoC4/CapSense_CSHL.c ****             if(diplex != 0u)
1397:.\Generated_Source\PSoC4/CapSense_CSHL.c ****             {
1398:.\Generated_Source\PSoC4/CapSense_CSHL.c ****                 /* Initialize */
1399:.\Generated_Source\PSoC4/CapSense_CSHL.c ****                 i = 0u;
ARM GAS  C:\Users\sunyi\AppData\Local\Temp\ccDxWxH0.s 			page 59


1400:.\Generated_Source\PSoC4/CapSense_CSHL.c ****                 
1401:.\Generated_Source\PSoC4/CapSense_CSHL.c ****                 /* Make slider x2 as Diplexed */
1402:.\Generated_Source\PSoC4/CapSense_CSHL.c ****                 count <<= 1u;
1403:.\Generated_Source\PSoC4/CapSense_CSHL.c ****                 while(1u)
1404:.\Generated_Source\PSoC4/CapSense_CSHL.c ****                 { 
1405:.\Generated_Source\PSoC4/CapSense_CSHL.c ****                     if (startOfSlider[curPos] > 0u)    /* Looking for centroids */
1406:.\Generated_Source\PSoC4/CapSense_CSHL.c ****                     {
1407:.\Generated_Source\PSoC4/CapSense_CSHL.c ****                         if (curCtrdStartPos == CapSense_MAXIMUM_CENTROID)
1408:.\Generated_Source\PSoC4/CapSense_CSHL.c ****                         {
1409:.\Generated_Source\PSoC4/CapSense_CSHL.c ****                             /* Start of centroid */
1410:.\Generated_Source\PSoC4/CapSense_CSHL.c ****                             curCtrdStartPos = i;
1411:.\Generated_Source\PSoC4/CapSense_CSHL.c ****                             curCntrdSize++;
1412:.\Generated_Source\PSoC4/CapSense_CSHL.c ****                         }
1413:.\Generated_Source\PSoC4/CapSense_CSHL.c ****                         else
1414:.\Generated_Source\PSoC4/CapSense_CSHL.c ****                         {
1415:.\Generated_Source\PSoC4/CapSense_CSHL.c ****                             curCntrdSize++;
1416:.\Generated_Source\PSoC4/CapSense_CSHL.c ****                         }
1417:.\Generated_Source\PSoC4/CapSense_CSHL.c ****                     }
1418:.\Generated_Source\PSoC4/CapSense_CSHL.c ****                     else   /* Select biggest and indicate zero start */
1419:.\Generated_Source\PSoC4/CapSense_CSHL.c ****                     {          
1420:.\Generated_Source\PSoC4/CapSense_CSHL.c ****                         if(curCntrdSize > 0u)
1421:.\Generated_Source\PSoC4/CapSense_CSHL.c ****                         {
1422:.\Generated_Source\PSoC4/CapSense_CSHL.c ****                             /* We are at the end of current */
1423:.\Generated_Source\PSoC4/CapSense_CSHL.c ****                             if(curCntrdSize > biggestCtrdSize)
1424:.\Generated_Source\PSoC4/CapSense_CSHL.c ****                             {
1425:.\Generated_Source\PSoC4/CapSense_CSHL.c ****                                 biggestCtrdSize = curCntrdSize;
1426:.\Generated_Source\PSoC4/CapSense_CSHL.c ****                                 biggestCtrdStartPos = curCtrdStartPos;
1427:.\Generated_Source\PSoC4/CapSense_CSHL.c ****                             }
1428:.\Generated_Source\PSoC4/CapSense_CSHL.c ****                             
1429:.\Generated_Source\PSoC4/CapSense_CSHL.c ****                             curCntrdSize = 0u;
1430:.\Generated_Source\PSoC4/CapSense_CSHL.c ****                             curCtrdStartPos = CapSense_MAXIMUM_CENTROID;
1431:.\Generated_Source\PSoC4/CapSense_CSHL.c ****                         }
1432:.\Generated_Source\PSoC4/CapSense_CSHL.c ****                     }
1433:.\Generated_Source\PSoC4/CapSense_CSHL.c ****                     
1434:.\Generated_Source\PSoC4/CapSense_CSHL.c ****                     i++; 
1435:.\Generated_Source\PSoC4/CapSense_CSHL.c ****                     curPos = diplex[i];
1436:.\Generated_Source\PSoC4/CapSense_CSHL.c ****                     if(i == count)
1437:.\Generated_Source\PSoC4/CapSense_CSHL.c ****                     {
1438:.\Generated_Source\PSoC4/CapSense_CSHL.c ****                         break;
1439:.\Generated_Source\PSoC4/CapSense_CSHL.c ****                     }            
1440:.\Generated_Source\PSoC4/CapSense_CSHL.c ****                 }
1441:.\Generated_Source\PSoC4/CapSense_CSHL.c ****                     
1442:.\Generated_Source\PSoC4/CapSense_CSHL.c ****                     /* Find biggest centroid if two are same size, last one wins
1443:.\Generated_Source\PSoC4/CapSense_CSHL.c ****                        We are at the end of current */
1444:.\Generated_Source\PSoC4/CapSense_CSHL.c ****                 if (curCntrdSize >= biggestCtrdSize) 
1445:.\Generated_Source\PSoC4/CapSense_CSHL.c ****                 {
1446:.\Generated_Source\PSoC4/CapSense_CSHL.c ****                     biggestCtrdSize = curCntrdSize;
1447:.\Generated_Source\PSoC4/CapSense_CSHL.c ****                     biggestCtrdStartPos = curCtrdStartPos;
1448:.\Generated_Source\PSoC4/CapSense_CSHL.c ****                 }
1449:.\Generated_Source\PSoC4/CapSense_CSHL.c ****             }
1450:.\Generated_Source\PSoC4/CapSense_CSHL.c ****             else
1451:.\Generated_Source\PSoC4/CapSense_CSHL.c ****             {
1452:.\Generated_Source\PSoC4/CapSense_CSHL.c ****                 /* Without diplexing */ 
1453:.\Generated_Source\PSoC4/CapSense_CSHL.c ****                 biggestCtrdSize = count;
1454:.\Generated_Source\PSoC4/CapSense_CSHL.c ****             }
1455:.\Generated_Source\PSoC4/CapSense_CSHL.c ****                         
1456:.\Generated_Source\PSoC4/CapSense_CSHL.c **** 
ARM GAS  C:\Users\sunyi\AppData\Local\Temp\ccDxWxH0.s 			page 60


1457:.\Generated_Source\PSoC4/CapSense_CSHL.c ****             /* Check centroid size */
1458:.\Generated_Source\PSoC4/CapSense_CSHL.c ****             #if (CapSense_IS_NON_DIPLEX_SLIDER)
1459:.\Generated_Source\PSoC4/CapSense_CSHL.c ****                 if((biggestCtrdSize >= 2u) || ((biggestCtrdSize == 1u) && (diplex == 0u)))
1460:.\Generated_Source\PSoC4/CapSense_CSHL.c ****             #else                    
1461:.\Generated_Source\PSoC4/CapSense_CSHL.c ****                 if(biggestCtrdSize >= 2u)
1462:.\Generated_Source\PSoC4/CapSense_CSHL.c ****             #endif /* (CapSense_IS_NON_DIPLEX_SLIDER) */
1463:.\Generated_Source\PSoC4/CapSense_CSHL.c ****                 {
1464:.\Generated_Source\PSoC4/CapSense_CSHL.c ****                     for (i = biggestCtrdStartPos; i < (biggestCtrdStartPos + biggestCtrdSize); i++)
1465:.\Generated_Source\PSoC4/CapSense_CSHL.c ****                     {
1466:.\Generated_Source\PSoC4/CapSense_CSHL.c ****                         #if (CapSense_IS_DIPLEX_SLIDER && CapSense_IS_NON_DIPLEX_SLIDER)
1467:.\Generated_Source\PSoC4/CapSense_CSHL.c ****                             if (diplex == 0u)
1468:.\Generated_Source\PSoC4/CapSense_CSHL.c ****                             {
1469:.\Generated_Source\PSoC4/CapSense_CSHL.c ****                                 curPos = i;
1470:.\Generated_Source\PSoC4/CapSense_CSHL.c ****                             }
1471:.\Generated_Source\PSoC4/CapSense_CSHL.c ****                             else
1472:.\Generated_Source\PSoC4/CapSense_CSHL.c ****                             {
1473:.\Generated_Source\PSoC4/CapSense_CSHL.c ****                                 curPos = diplex[i];
1474:.\Generated_Source\PSoC4/CapSense_CSHL.c ****                             }                    
1475:.\Generated_Source\PSoC4/CapSense_CSHL.c ****                         #elif (CapSense_IS_DIPLEX_SLIDER)                    
1476:.\Generated_Source\PSoC4/CapSense_CSHL.c ****                             curPos = diplex[i];                    
1477:.\Generated_Source\PSoC4/CapSense_CSHL.c ****                         #endif /* (CapSense_IS_DIPLEX_SLIDER && CapSense_IS_NON_DIPLEX_SLIDER) */
1478:.\Generated_Source\PSoC4/CapSense_CSHL.c ****                         /* Looking for greater element within centroid */
1479:.\Generated_Source\PSoC4/CapSense_CSHL.c ****                         if(startOfSlider[curPos] > fingerThreshold)
1480:.\Generated_Source\PSoC4/CapSense_CSHL.c ****                         {
1481:.\Generated_Source\PSoC4/CapSense_CSHL.c ****                             if(startOfSlider[curPos] > temp)
1482:.\Generated_Source\PSoC4/CapSense_CSHL.c ****                             {
1483:.\Generated_Source\PSoC4/CapSense_CSHL.c ****                                 maximum = i;
1484:.\Generated_Source\PSoC4/CapSense_CSHL.c ****                                 temp = startOfSlider[curPos];
1485:.\Generated_Source\PSoC4/CapSense_CSHL.c ****                             }
1486:.\Generated_Source\PSoC4/CapSense_CSHL.c ****                         }
1487:.\Generated_Source\PSoC4/CapSense_CSHL.c ****                     }
1488:.\Generated_Source\PSoC4/CapSense_CSHL.c ****                 } 
1489:.\Generated_Source\PSoC4/CapSense_CSHL.c ****         #else
1490:.\Generated_Source\PSoC4/CapSense_CSHL.c ****             for (i = 0u; i < count; i++)
 1889              		.loc 1 1490 0
 1890 0038 0F23     		mov	r3, #15
 1891 003a FB18     		add	r3, r7, r3
 1892 003c 0022     		mov	r2, #0
 1893 003e 1A70     		strb	r2, [r3]
 1894 0040 2AE0     		b	.L121
 1895              	.L123:
1491:.\Generated_Source\PSoC4/CapSense_CSHL.c ****             {                      
1492:.\Generated_Source\PSoC4/CapSense_CSHL.c ****                 /* Looking for greater element within centroid */
1493:.\Generated_Source\PSoC4/CapSense_CSHL.c ****                 if(startOfSlider[i] > fingerThreshold)
 1896              		.loc 1 1493 0
 1897 0042 0F23     		mov	r3, #15
 1898 0044 FB18     		add	r3, r7, r3
 1899 0046 1B78     		ldrb	r3, [r3]
 1900 0048 BA68     		ldr	r2, [r7, #8]
 1901 004a D318     		add	r3, r2, r3
 1902 004c 1B78     		ldrb	r3, [r3]
 1903 004e 7A1D     		add	r2, r7, #5
 1904 0050 1278     		ldrb	r2, [r2]
 1905 0052 9A42     		cmp	r2, r3
 1906 0054 19D2     		bcs	.L122
1494:.\Generated_Source\PSoC4/CapSense_CSHL.c ****                 {
1495:.\Generated_Source\PSoC4/CapSense_CSHL.c ****                     if(startOfSlider[i] > temp)
ARM GAS  C:\Users\sunyi\AppData\Local\Temp\ccDxWxH0.s 			page 61


 1907              		.loc 1 1495 0
 1908 0056 0F23     		mov	r3, #15
 1909 0058 FB18     		add	r3, r7, r3
 1910 005a 1B78     		ldrb	r3, [r3]
 1911 005c BA68     		ldr	r2, [r7, #8]
 1912 005e D318     		add	r3, r2, r3
 1913 0060 1B78     		ldrb	r3, [r3]
 1914 0062 0D22     		mov	r2, #13
 1915 0064 BA18     		add	r2, r7, r2
 1916 0066 1278     		ldrb	r2, [r2]
 1917 0068 9A42     		cmp	r2, r3
 1918 006a 0ED2     		bcs	.L122
1496:.\Generated_Source\PSoC4/CapSense_CSHL.c ****                     {
1497:.\Generated_Source\PSoC4/CapSense_CSHL.c ****                         maximum = i;
 1919              		.loc 1 1497 0
 1920 006c 0E23     		mov	r3, #14
 1921 006e FB18     		add	r3, r7, r3
 1922 0070 0F22     		mov	r2, #15
 1923 0072 BA18     		add	r2, r7, r2
 1924 0074 1278     		ldrb	r2, [r2]
 1925 0076 1A70     		strb	r2, [r3]
1498:.\Generated_Source\PSoC4/CapSense_CSHL.c ****                         temp = startOfSlider[i];
 1926              		.loc 1 1498 0
 1927 0078 0F23     		mov	r3, #15
 1928 007a FB18     		add	r3, r7, r3
 1929 007c 1B78     		ldrb	r3, [r3]
 1930 007e BA68     		ldr	r2, [r7, #8]
 1931 0080 D218     		add	r2, r2, r3
 1932 0082 0D23     		mov	r3, #13
 1933 0084 FB18     		add	r3, r7, r3
 1934 0086 1278     		ldrb	r2, [r2]
 1935 0088 1A70     		strb	r2, [r3]
 1936              	.L122:
1490:.\Generated_Source\PSoC4/CapSense_CSHL.c ****             {                      
 1937              		.loc 1 1490 0 discriminator 2
 1938 008a 0F23     		mov	r3, #15
 1939 008c FB18     		add	r3, r7, r3
 1940 008e 1A78     		ldrb	r2, [r3]
 1941 0090 0F23     		mov	r3, #15
 1942 0092 FB18     		add	r3, r7, r3
 1943 0094 0132     		add	r2, r2, #1
 1944 0096 1A70     		strb	r2, [r3]
 1945              	.L121:
1490:.\Generated_Source\PSoC4/CapSense_CSHL.c ****             {                      
 1946              		.loc 1 1490 0 is_stmt 0 discriminator 1
 1947 0098 0F23     		mov	r3, #15
 1948 009a FA18     		add	r2, r7, r3
 1949 009c BB1D     		add	r3, r7, #6
 1950 009e 1278     		ldrb	r2, [r2]
 1951 00a0 1B78     		ldrb	r3, [r3]
 1952 00a2 9A42     		cmp	r2, r3
 1953 00a4 CDD3     		bcc	.L123
1499:.\Generated_Source\PSoC4/CapSense_CSHL.c ****                     }
1500:.\Generated_Source\PSoC4/CapSense_CSHL.c ****                 }
1501:.\Generated_Source\PSoC4/CapSense_CSHL.c ****             }    
1502:.\Generated_Source\PSoC4/CapSense_CSHL.c ****         #endif /* (CapSense_IS_DIPLEX_SLIDER) */
1503:.\Generated_Source\PSoC4/CapSense_CSHL.c ****         return (maximum);
ARM GAS  C:\Users\sunyi\AppData\Local\Temp\ccDxWxH0.s 			page 62


 1954              		.loc 1 1503 0 is_stmt 1
 1955 00a6 0E23     		mov	r3, #14
 1956 00a8 FB18     		add	r3, r7, r3
 1957 00aa 1B78     		ldrb	r3, [r3]
1504:.\Generated_Source\PSoC4/CapSense_CSHL.c ****     }
 1958              		.loc 1 1504 0
 1959 00ac 181C     		mov	r0, r3
 1960 00ae BD46     		mov	sp, r7
 1961 00b0 05B0     		add	sp, sp, #20
 1962              		@ sp needed
 1963 00b2 90BD     		pop	{r4, r7, pc}
 1964              	.L126:
 1965              		.align	2
 1966              	.L125:
 1967 00b4 00000000 		.word	CapSense_sensorSignal
 1968              		.cfi_endproc
 1969              	.LFE62:
 1970              		.size	CapSense_FindMaximum, .-CapSense_FindMaximum
 1971              		.global	__aeabi_idiv
 1972              		.section	.text.CapSense_CalcCentroid,"ax",%progbits
 1973              		.align	2
 1974              		.global	CapSense_CalcCentroid
 1975              		.code	16
 1976              		.thumb_func
 1977              		.type	CapSense_CalcCentroid, %function
 1978              	CapSense_CalcCentroid:
 1979              	.LFB63:
1505:.\Generated_Source\PSoC4/CapSense_CSHL.c ****     
1506:.\Generated_Source\PSoC4/CapSense_CSHL.c ****     
1507:.\Generated_Source\PSoC4/CapSense_CSHL.c ****     /*******************************************************************************
1508:.\Generated_Source\PSoC4/CapSense_CSHL.c ****     * Function Name: CapSense_CalcCentroid
1509:.\Generated_Source\PSoC4/CapSense_CSHL.c ****     ********************************************************************************
1510:.\Generated_Source\PSoC4/CapSense_CSHL.c ****     *
1511:.\Generated_Source\PSoC4/CapSense_CSHL.c ****     * Summary:
1512:.\Generated_Source\PSoC4/CapSense_CSHL.c ****     *  Returns a position value calculated according to the index of the maximum element and API
1513:.\Generated_Source\PSoC4/CapSense_CSHL.c ****     *  resolution.
1514:.\Generated_Source\PSoC4/CapSense_CSHL.c ****     *
1515:.\Generated_Source\PSoC4/CapSense_CSHL.c ****     * Parameters:
1516:.\Generated_Source\PSoC4/CapSense_CSHL.c ****     *  type:  widget type.
1517:.\Generated_Source\PSoC4/CapSense_CSHL.c ****     *  diplex:  pointer to diplex table.
1518:.\Generated_Source\PSoC4/CapSense_CSHL.c ****     *  maximum:  Index of maximum element within centroid.
1519:.\Generated_Source\PSoC4/CapSense_CSHL.c ****     *  offset:   Start index of centroid in CapSense_sensorSignal[] array.
1520:.\Generated_Source\PSoC4/CapSense_CSHL.c ****     *  count:    Number of elements within centroid.
1521:.\Generated_Source\PSoC4/CapSense_CSHL.c ****     *  resolution:  multiplicator calculated according to centroid type and
1522:.\Generated_Source\PSoC4/CapSense_CSHL.c ****     *  API resolution.
1523:.\Generated_Source\PSoC4/CapSense_CSHL.c ****     *  noiseThreshold:  Noise threshold.
1524:.\Generated_Source\PSoC4/CapSense_CSHL.c ****     * 
1525:.\Generated_Source\PSoC4/CapSense_CSHL.c ****     * Return:
1526:.\Generated_Source\PSoC4/CapSense_CSHL.c ****     *  Returns a position value of the slider.
1527:.\Generated_Source\PSoC4/CapSense_CSHL.c **** 	*
1528:.\Generated_Source\PSoC4/CapSense_CSHL.c **** 	* Side Effects: 
1529:.\Generated_Source\PSoC4/CapSense_CSHL.c **** 	*  None
1530:.\Generated_Source\PSoC4/CapSense_CSHL.c **** 	* 
1531:.\Generated_Source\PSoC4/CapSense_CSHL.c ****     *******************************************************************************/
1532:.\Generated_Source\PSoC4/CapSense_CSHL.c **** #if (CapSense_TOTAL_TRACKPAD_GESTURES_COUNT > 0u)
1533:.\Generated_Source\PSoC4/CapSense_CSHL.c ****     uint8 CapSense_CalcCentroid(uint8 maximum, uint8 offset, 
1534:.\Generated_Source\PSoC4/CapSense_CSHL.c ****                                         uint8 count, uint32 resolution, uint8 noiseThreshold)
ARM GAS  C:\Users\sunyi\AppData\Local\Temp\ccDxWxH0.s 			page 63


1535:.\Generated_Source\PSoC4/CapSense_CSHL.c **** #else								
1536:.\Generated_Source\PSoC4/CapSense_CSHL.c ****     uint8 CapSense_CalcCentroid(uint8 maximum, uint8 offset, 
1537:.\Generated_Source\PSoC4/CapSense_CSHL.c ****                                         uint8 count, uint16 resolution, uint8 noiseThreshold)						
1538:.\Generated_Source\PSoC4/CapSense_CSHL.c **** #endif /* (CapSense_TOTAL_TRACKPAD_GESTURES_COUNT > 0u) */
1539:.\Generated_Source\PSoC4/CapSense_CSHL.c ****     {
 1980              		.loc 1 1539 0
 1981              		.cfi_startproc
 1982 0000 B0B5     		push	{r4, r5, r7, lr}
 1983              		.cfi_def_cfa_offset 16
 1984              		.cfi_offset 4, -16
 1985              		.cfi_offset 5, -12
 1986              		.cfi_offset 7, -8
 1987              		.cfi_offset 14, -4
 1988 0002 88B0     		sub	sp, sp, #32
 1989              		.cfi_def_cfa_offset 48
 1990 0004 00AF     		add	r7, sp, #0
 1991              		.cfi_def_cfa_register 7
 1992 0006 051C     		mov	r5, r0
 1993 0008 0C1C     		mov	r4, r1
 1994 000a 101C     		mov	r0, r2
 1995 000c 191C     		mov	r1, r3
 1996 000e FB1D     		add	r3, r7, #7
 1997 0010 2A1C     		add	r2, r5, #0
 1998 0012 1A70     		strb	r2, [r3]
 1999 0014 BB1D     		add	r3, r7, #6
 2000 0016 221C     		add	r2, r4, #0
 2001 0018 1A70     		strb	r2, [r3]
 2002 001a 7B1D     		add	r3, r7, #5
 2003 001c 021C     		add	r2, r0, #0
 2004 001e 1A70     		strb	r2, [r3]
 2005 0020 BB1C     		add	r3, r7, #2
 2006 0022 0A1C     		add	r2, r1, #0
 2007 0024 1A80     		strh	r2, [r3]
1540:.\Generated_Source\PSoC4/CapSense_CSHL.c ****         #if ((CapSense_TOTAL_LINEAR_SLIDERS_COUNT > 0u) || (CapSense_TOTAL_TOUCH_PADS_BASIC_COUNT >
1541:.\Generated_Source\PSoC4/CapSense_CSHL.c ****             uint8 posPrev;
1542:.\Generated_Source\PSoC4/CapSense_CSHL.c ****             uint8 posNext;
1543:.\Generated_Source\PSoC4/CapSense_CSHL.c ****         #endif /* ((CapSense_TOTAL_LINEAR_SLIDERS_COUNT>0u) || (CapSense_TOTAL_TOUCH_PADS_BASIC_COU
1544:.\Generated_Source\PSoC4/CapSense_CSHL.c ****         
1545:.\Generated_Source\PSoC4/CapSense_CSHL.c ****         /* Helps during centroid calculation */
1546:.\Generated_Source\PSoC4/CapSense_CSHL.c ****         #if (CapSense_TOTAL_CENTROIDS_BASIC_COUNT)
1547:.\Generated_Source\PSoC4/CapSense_CSHL.c **** 		    static uint8 CapSense_centroid[3u];
1548:.\Generated_Source\PSoC4/CapSense_CSHL.c ****         #endif  /* (CapSense_TOTAL_CENTROIDS_BASIC_COUNT) */
1549:.\Generated_Source\PSoC4/CapSense_CSHL.c ****                
1550:.\Generated_Source\PSoC4/CapSense_CSHL.c ****         #if (CapSense_IS_DIPLEX_SLIDER)                
1551:.\Generated_Source\PSoC4/CapSense_CSHL.c ****             uint8 pos;
1552:.\Generated_Source\PSoC4/CapSense_CSHL.c ****         #endif /* (CapSense_IS_DIPLEX_SLIDER) */
1553:.\Generated_Source\PSoC4/CapSense_CSHL.c **** 
1554:.\Generated_Source\PSoC4/CapSense_CSHL.c ****         uint8 position;
1555:.\Generated_Source\PSoC4/CapSense_CSHL.c ****         uint32 numerator;
1556:.\Generated_Source\PSoC4/CapSense_CSHL.c ****         int32 denominator;
1557:.\Generated_Source\PSoC4/CapSense_CSHL.c **** 		
1558:.\Generated_Source\PSoC4/CapSense_CSHL.c **** 		uint8  *startOfSlider = &CapSense_sensorSignal[offset];
 2008              		.loc 1 1558 0
 2009 0026 BB1D     		add	r3, r7, #6
 2010 0028 1A78     		ldrb	r2, [r3]
 2011 002a 5B4B     		ldr	r3, .L137
 2012 002c D318     		add	r3, r2, r3
ARM GAS  C:\Users\sunyi\AppData\Local\Temp\ccDxWxH0.s 			page 64


 2013 002e BB61     		str	r3, [r7, #24]
1559:.\Generated_Source\PSoC4/CapSense_CSHL.c **** 		
1560:.\Generated_Source\PSoC4/CapSense_CSHL.c ****         #if ((CapSense_TOTAL_LINEAR_SLIDERS_COUNT > 0u) || (CapSense_TOTAL_TOUCH_PADS_BASIC_COUNT >
1561:.\Generated_Source\PSoC4/CapSense_CSHL.c ****             posPrev = 0u;
 2014              		.loc 1 1561 0
 2015 0030 1F23     		mov	r3, #31
 2016 0032 FB18     		add	r3, r7, r3
 2017 0034 0022     		mov	r2, #0
 2018 0036 1A70     		strb	r2, [r3]
1562:.\Generated_Source\PSoC4/CapSense_CSHL.c ****         #endif /* ((CapSense_TOTAL_LINEAR_SLIDERS_COUNT>0u) || (CapSense_TOTAL_TOUCH_PADS_BASIC_COU
1563:.\Generated_Source\PSoC4/CapSense_CSHL.c ****      
1564:.\Generated_Source\PSoC4/CapSense_CSHL.c ****         #if (CapSense_ADD_SLIDER_TYPE)
1565:.\Generated_Source\PSoC4/CapSense_CSHL.c ****             if(type == CapSense_TYPE_RADIAL_SLIDER)
1566:.\Generated_Source\PSoC4/CapSense_CSHL.c ****             {
1567:.\Generated_Source\PSoC4/CapSense_CSHL.c ****         #endif /* (CapSense_ADD_SLIDER_TYPE) */
1568:.\Generated_Source\PSoC4/CapSense_CSHL.c **** 
1569:.\Generated_Source\PSoC4/CapSense_CSHL.c ****             #if (CapSense_TOTAL_RADIAL_SLIDERS_COUNT > 0u)                
1570:.\Generated_Source\PSoC4/CapSense_CSHL.c ****                 /* Copy Signal to the centroid array */
1571:.\Generated_Source\PSoC4/CapSense_CSHL.c ****                 CapSense_centroid[CapSense_POS] = startOfSlider[maximum];
1572:.\Generated_Source\PSoC4/CapSense_CSHL.c ****                  
1573:.\Generated_Source\PSoC4/CapSense_CSHL.c ****                 /* Check borders for ROTARY Slider */
1574:.\Generated_Source\PSoC4/CapSense_CSHL.c ****                 if (maximum == 0u)                   /* Start of centroid */
1575:.\Generated_Source\PSoC4/CapSense_CSHL.c ****                 { 
1576:.\Generated_Source\PSoC4/CapSense_CSHL.c ****                     CapSense_centroid[CapSense_POS_PREV] = startOfSlider[count - 1u];
1577:.\Generated_Source\PSoC4/CapSense_CSHL.c ****                     CapSense_centroid[CapSense_POS_NEXT] = startOfSlider[1u];
1578:.\Generated_Source\PSoC4/CapSense_CSHL.c ****                 }
1579:.\Generated_Source\PSoC4/CapSense_CSHL.c ****                 else if (maximum == (count - 1u))    /* End of centroid */
1580:.\Generated_Source\PSoC4/CapSense_CSHL.c ****                 {
1581:.\Generated_Source\PSoC4/CapSense_CSHL.c ****                     CapSense_centroid[CapSense_POS_PREV] = startOfSlider[maximum - 1u];
1582:.\Generated_Source\PSoC4/CapSense_CSHL.c ****                     CapSense_centroid[CapSense_POS_NEXT] = startOfSlider[0u];
1583:.\Generated_Source\PSoC4/CapSense_CSHL.c ****                 }
1584:.\Generated_Source\PSoC4/CapSense_CSHL.c ****                 else                                /* Not first Not last */
1585:.\Generated_Source\PSoC4/CapSense_CSHL.c ****                 {
1586:.\Generated_Source\PSoC4/CapSense_CSHL.c ****                     CapSense_centroid[CapSense_POS_PREV] = startOfSlider[maximum - 1u];
1587:.\Generated_Source\PSoC4/CapSense_CSHL.c ****                     CapSense_centroid[CapSense_POS_NEXT] = startOfSlider[maximum + 1u];
1588:.\Generated_Source\PSoC4/CapSense_CSHL.c ****                 }
1589:.\Generated_Source\PSoC4/CapSense_CSHL.c ****             #endif /* (CapSense_TOTAL_RADIAL_SLIDERS_COUNT > 0u) */
1590:.\Generated_Source\PSoC4/CapSense_CSHL.c **** 
1591:.\Generated_Source\PSoC4/CapSense_CSHL.c ****         #if (CapSense_ADD_SLIDER_TYPE)
1592:.\Generated_Source\PSoC4/CapSense_CSHL.c ****             }
1593:.\Generated_Source\PSoC4/CapSense_CSHL.c ****             else
1594:.\Generated_Source\PSoC4/CapSense_CSHL.c ****             {
1595:.\Generated_Source\PSoC4/CapSense_CSHL.c ****         #endif /* (CapSense_ADD_SLIDER_TYPE) */
1596:.\Generated_Source\PSoC4/CapSense_CSHL.c **** 
1597:.\Generated_Source\PSoC4/CapSense_CSHL.c ****             #if ((CapSense_TOTAL_LINEAR_SLIDERS_COUNT > 0u) || (CapSense_TOTAL_TOUCH_PADS_BASIC_COU
1598:.\Generated_Source\PSoC4/CapSense_CSHL.c ****                 #if (CapSense_IS_DIPLEX_SLIDER && CapSense_IS_NON_DIPLEX_SLIDER)                   
1599:.\Generated_Source\PSoC4/CapSense_CSHL.c ****                     /* Calculate next and previous near to maximum */
1600:.\Generated_Source\PSoC4/CapSense_CSHL.c ****                     if(diplex == 0u)
1601:.\Generated_Source\PSoC4/CapSense_CSHL.c ****                     {
1602:.\Generated_Source\PSoC4/CapSense_CSHL.c ****                         pos     = maximum;
1603:.\Generated_Source\PSoC4/CapSense_CSHL.c ****                         posPrev = maximum - 1u;
1604:.\Generated_Source\PSoC4/CapSense_CSHL.c ****                         posNext = maximum + 1u; 
1605:.\Generated_Source\PSoC4/CapSense_CSHL.c ****                     }
1606:.\Generated_Source\PSoC4/CapSense_CSHL.c ****                     else
1607:.\Generated_Source\PSoC4/CapSense_CSHL.c ****                     {
1608:.\Generated_Source\PSoC4/CapSense_CSHL.c ****                         pos     = diplex[maximum];
1609:.\Generated_Source\PSoC4/CapSense_CSHL.c ****                         posPrev = diplex[maximum - 1u];
ARM GAS  C:\Users\sunyi\AppData\Local\Temp\ccDxWxH0.s 			page 65


1610:.\Generated_Source\PSoC4/CapSense_CSHL.c ****                         posNext = diplex[maximum + 1u];
1611:.\Generated_Source\PSoC4/CapSense_CSHL.c ****                         count <<= 1u;
1612:.\Generated_Source\PSoC4/CapSense_CSHL.c ****                     }                    
1613:.\Generated_Source\PSoC4/CapSense_CSHL.c ****                 #elif (CapSense_IS_DIPLEX_SLIDER)
1614:.\Generated_Source\PSoC4/CapSense_CSHL.c ****                     /* Calculate next and previous near to maximum */
1615:.\Generated_Source\PSoC4/CapSense_CSHL.c ****                     pos     = diplex[maximum];
1616:.\Generated_Source\PSoC4/CapSense_CSHL.c ****                     posPrev = diplex[maximum - 1u];
1617:.\Generated_Source\PSoC4/CapSense_CSHL.c ****                     posNext = diplex[maximum + 1u];
1618:.\Generated_Source\PSoC4/CapSense_CSHL.c ****                     count <<= 1u;                    
1619:.\Generated_Source\PSoC4/CapSense_CSHL.c ****                 #else                    
1620:.\Generated_Source\PSoC4/CapSense_CSHL.c ****                     /* Calculate next and previous near to maximum */
1621:.\Generated_Source\PSoC4/CapSense_CSHL.c ****                     if (maximum >= 1u)
 2019              		.loc 1 1621 0
 2020 0038 FB1D     		add	r3, r7, #7
 2021 003a 1B78     		ldrb	r3, [r3]
 2022 003c 002B     		cmp	r3, #0
 2023 003e 05D0     		beq	.L128
1622:.\Generated_Source\PSoC4/CapSense_CSHL.c ****                     {
1623:.\Generated_Source\PSoC4/CapSense_CSHL.c ****                         posPrev = maximum - 1u;
 2024              		.loc 1 1623 0
 2025 0040 1F23     		mov	r3, #31
 2026 0042 FB18     		add	r3, r7, r3
 2027 0044 FA1D     		add	r2, r7, #7
 2028 0046 1278     		ldrb	r2, [r2]
 2029 0048 013A     		sub	r2, r2, #1
 2030 004a 1A70     		strb	r2, [r3]
 2031              	.L128:
1624:.\Generated_Source\PSoC4/CapSense_CSHL.c ****                     }
1625:.\Generated_Source\PSoC4/CapSense_CSHL.c ****                     posNext = maximum + 1u;
 2032              		.loc 1 1625 0
 2033 004c 1723     		mov	r3, #23
 2034 004e FB18     		add	r3, r7, r3
 2035 0050 FA1D     		add	r2, r7, #7
 2036 0052 1278     		ldrb	r2, [r2]
 2037 0054 0132     		add	r2, r2, #1
 2038 0056 1A70     		strb	r2, [r3]
1626:.\Generated_Source\PSoC4/CapSense_CSHL.c ****                 #endif /* (CapSense_IS_DIPLEX_SLIDER && CapSense_IS_NON_DIPLEX_SLIDER) */
1627:.\Generated_Source\PSoC4/CapSense_CSHL.c ****                         
1628:.\Generated_Source\PSoC4/CapSense_CSHL.c ****                 /* Copy Signal to the centroid array */
1629:.\Generated_Source\PSoC4/CapSense_CSHL.c ****                 #if (CapSense_IS_DIPLEX_SLIDER)
1630:.\Generated_Source\PSoC4/CapSense_CSHL.c ****                     CapSense_centroid[CapSense_POS] = startOfSlider[pos];
1631:.\Generated_Source\PSoC4/CapSense_CSHL.c ****                 #else
1632:.\Generated_Source\PSoC4/CapSense_CSHL.c ****                     CapSense_centroid[CapSense_POS] = startOfSlider[maximum];
 2039              		.loc 1 1632 0
 2040 0058 FB1D     		add	r3, r7, #7
 2041 005a 1B78     		ldrb	r3, [r3]
 2042 005c BA69     		ldr	r2, [r7, #24]
 2043 005e D318     		add	r3, r2, r3
 2044 0060 1A78     		ldrb	r2, [r3]
 2045 0062 4E4B     		ldr	r3, .L137+4
 2046 0064 5A70     		strb	r2, [r3, #1]
1633:.\Generated_Source\PSoC4/CapSense_CSHL.c ****                 #endif /* (CapSense_IS_DIPLEX_SLIDER) */
1634:.\Generated_Source\PSoC4/CapSense_CSHL.c ****                     
1635:.\Generated_Source\PSoC4/CapSense_CSHL.c ****                 /* Check borders for LINEAR Slider */
1636:.\Generated_Source\PSoC4/CapSense_CSHL.c ****                 if (maximum == 0u)                   /* Start of centroid */
 2047              		.loc 1 1636 0
 2048 0066 FB1D     		add	r3, r7, #7
ARM GAS  C:\Users\sunyi\AppData\Local\Temp\ccDxWxH0.s 			page 66


 2049 0068 1B78     		ldrb	r3, [r3]
 2050 006a 002B     		cmp	r3, #0
 2051 006c 0BD1     		bne	.L129
1637:.\Generated_Source\PSoC4/CapSense_CSHL.c ****                 { 
1638:.\Generated_Source\PSoC4/CapSense_CSHL.c ****                     CapSense_centroid[CapSense_POS_PREV] = 0u;
 2052              		.loc 1 1638 0
 2053 006e 4B4B     		ldr	r3, .L137+4
 2054 0070 0022     		mov	r2, #0
 2055 0072 1A70     		strb	r2, [r3]
1639:.\Generated_Source\PSoC4/CapSense_CSHL.c ****                     CapSense_centroid[CapSense_POS_NEXT] = startOfSlider[posNext];
 2056              		.loc 1 1639 0
 2057 0074 1723     		mov	r3, #23
 2058 0076 FB18     		add	r3, r7, r3
 2059 0078 1B78     		ldrb	r3, [r3]
 2060 007a BA69     		ldr	r2, [r7, #24]
 2061 007c D318     		add	r3, r2, r3
 2062 007e 1A78     		ldrb	r2, [r3]
 2063 0080 464B     		ldr	r3, .L137+4
 2064 0082 9A70     		strb	r2, [r3, #2]
 2065 0084 22E0     		b	.L130
 2066              	.L129:
1640:.\Generated_Source\PSoC4/CapSense_CSHL.c ****                 }
1641:.\Generated_Source\PSoC4/CapSense_CSHL.c ****                 else if (maximum == ((count) - 1u)) /* End of centroid */
 2067              		.loc 1 1641 0
 2068 0086 FB1D     		add	r3, r7, #7
 2069 0088 1A78     		ldrb	r2, [r3]
 2070 008a 7B1D     		add	r3, r7, #5
 2071 008c 1B78     		ldrb	r3, [r3]
 2072 008e 013B     		sub	r3, r3, #1
 2073 0090 9A42     		cmp	r2, r3
 2074 0092 0BD1     		bne	.L131
1642:.\Generated_Source\PSoC4/CapSense_CSHL.c ****                 {
1643:.\Generated_Source\PSoC4/CapSense_CSHL.c ****                     CapSense_centroid[CapSense_POS_PREV] = startOfSlider[posPrev];
 2075              		.loc 1 1643 0
 2076 0094 1F23     		mov	r3, #31
 2077 0096 FB18     		add	r3, r7, r3
 2078 0098 1B78     		ldrb	r3, [r3]
 2079 009a BA69     		ldr	r2, [r7, #24]
 2080 009c D318     		add	r3, r2, r3
 2081 009e 1A78     		ldrb	r2, [r3]
 2082 00a0 3E4B     		ldr	r3, .L137+4
 2083 00a2 1A70     		strb	r2, [r3]
1644:.\Generated_Source\PSoC4/CapSense_CSHL.c ****                     CapSense_centroid[CapSense_POS_NEXT] = 0u;
 2084              		.loc 1 1644 0
 2085 00a4 3D4B     		ldr	r3, .L137+4
 2086 00a6 0022     		mov	r2, #0
 2087 00a8 9A70     		strb	r2, [r3, #2]
 2088 00aa 0FE0     		b	.L130
 2089              	.L131:
1645:.\Generated_Source\PSoC4/CapSense_CSHL.c ****                 }
1646:.\Generated_Source\PSoC4/CapSense_CSHL.c ****                 else                                /* Not first Not last */
1647:.\Generated_Source\PSoC4/CapSense_CSHL.c ****                 {
1648:.\Generated_Source\PSoC4/CapSense_CSHL.c ****                     CapSense_centroid[CapSense_POS_PREV] = startOfSlider[posPrev];
 2090              		.loc 1 1648 0
 2091 00ac 1F23     		mov	r3, #31
 2092 00ae FB18     		add	r3, r7, r3
 2093 00b0 1B78     		ldrb	r3, [r3]
ARM GAS  C:\Users\sunyi\AppData\Local\Temp\ccDxWxH0.s 			page 67


 2094 00b2 BA69     		ldr	r2, [r7, #24]
 2095 00b4 D318     		add	r3, r2, r3
 2096 00b6 1A78     		ldrb	r2, [r3]
 2097 00b8 384B     		ldr	r3, .L137+4
 2098 00ba 1A70     		strb	r2, [r3]
1649:.\Generated_Source\PSoC4/CapSense_CSHL.c ****                     CapSense_centroid[CapSense_POS_NEXT] = startOfSlider[posNext];
 2099              		.loc 1 1649 0
 2100 00bc 1723     		mov	r3, #23
 2101 00be FB18     		add	r3, r7, r3
 2102 00c0 1B78     		ldrb	r3, [r3]
 2103 00c2 BA69     		ldr	r2, [r7, #24]
 2104 00c4 D318     		add	r3, r2, r3
 2105 00c6 1A78     		ldrb	r2, [r3]
 2106 00c8 344B     		ldr	r3, .L137+4
 2107 00ca 9A70     		strb	r2, [r3, #2]
 2108              	.L130:
1650:.\Generated_Source\PSoC4/CapSense_CSHL.c ****                 }
1651:.\Generated_Source\PSoC4/CapSense_CSHL.c ****             #endif /* ((CapSense_TOTAL_LINEAR_SLIDERS_COUNT>0u)||(CapSense_TOTAL_TOUCH_PADS_BASIC_C
1652:.\Generated_Source\PSoC4/CapSense_CSHL.c **** 
1653:.\Generated_Source\PSoC4/CapSense_CSHL.c ****         #if (CapSense_ADD_SLIDER_TYPE)
1654:.\Generated_Source\PSoC4/CapSense_CSHL.c ****             }
1655:.\Generated_Source\PSoC4/CapSense_CSHL.c ****         #endif /* (CapSense_ADD_SLIDER_TYPE) */
1656:.\Generated_Source\PSoC4/CapSense_CSHL.c ****     
1657:.\Generated_Source\PSoC4/CapSense_CSHL.c ****         /* Subtract noiseThreshold */
1658:.\Generated_Source\PSoC4/CapSense_CSHL.c ****         if(CapSense_centroid[CapSense_POS_PREV] > noiseThreshold)
 2109              		.loc 1 1658 0
 2110 00cc 334B     		ldr	r3, .L137+4
 2111 00ce 1B78     		ldrb	r3, [r3]
 2112 00d0 3022     		mov	r2, #48
 2113 00d2 BA18     		add	r2, r7, r2
 2114 00d4 1278     		ldrb	r2, [r2]
 2115 00d6 9A42     		cmp	r2, r3
 2116 00d8 09D2     		bcs	.L132
1659:.\Generated_Source\PSoC4/CapSense_CSHL.c ****         {
1660:.\Generated_Source\PSoC4/CapSense_CSHL.c ****             CapSense_centroid[CapSense_POS_PREV] -= noiseThreshold;
 2117              		.loc 1 1660 0
 2118 00da 304B     		ldr	r3, .L137+4
 2119 00dc 1A78     		ldrb	r2, [r3]
 2120 00de 3023     		mov	r3, #48
 2121 00e0 FB18     		add	r3, r7, r3
 2122 00e2 1B78     		ldrb	r3, [r3]
 2123 00e4 D31A     		sub	r3, r2, r3
 2124 00e6 DAB2     		uxtb	r2, r3
 2125 00e8 2C4B     		ldr	r3, .L137+4
 2126 00ea 1A70     		strb	r2, [r3]
 2127 00ec 02E0     		b	.L133
 2128              	.L132:
1661:.\Generated_Source\PSoC4/CapSense_CSHL.c ****         }
1662:.\Generated_Source\PSoC4/CapSense_CSHL.c ****         else
1663:.\Generated_Source\PSoC4/CapSense_CSHL.c ****         {
1664:.\Generated_Source\PSoC4/CapSense_CSHL.c ****             CapSense_centroid[CapSense_POS_PREV] = 0u;
 2129              		.loc 1 1664 0
 2130 00ee 2B4B     		ldr	r3, .L137+4
 2131 00f0 0022     		mov	r2, #0
 2132 00f2 1A70     		strb	r2, [r3]
 2133              	.L133:
1665:.\Generated_Source\PSoC4/CapSense_CSHL.c ****         }
ARM GAS  C:\Users\sunyi\AppData\Local\Temp\ccDxWxH0.s 			page 68


1666:.\Generated_Source\PSoC4/CapSense_CSHL.c ****         
1667:.\Generated_Source\PSoC4/CapSense_CSHL.c ****         /* Maximum always greater than fingerThreshold, so greater than noiseThreshold */
1668:.\Generated_Source\PSoC4/CapSense_CSHL.c ****         CapSense_centroid[CapSense_POS] -= noiseThreshold;
 2134              		.loc 1 1668 0
 2135 00f4 294B     		ldr	r3, .L137+4
 2136 00f6 5A78     		ldrb	r2, [r3, #1]
 2137 00f8 3023     		mov	r3, #48
 2138 00fa FB18     		add	r3, r7, r3
 2139 00fc 1B78     		ldrb	r3, [r3]
 2140 00fe D31A     		sub	r3, r2, r3
 2141 0100 DAB2     		uxtb	r2, r3
 2142 0102 264B     		ldr	r3, .L137+4
 2143 0104 5A70     		strb	r2, [r3, #1]
1669:.\Generated_Source\PSoC4/CapSense_CSHL.c ****         
1670:.\Generated_Source\PSoC4/CapSense_CSHL.c ****         /* Subtract noiseThreshold */
1671:.\Generated_Source\PSoC4/CapSense_CSHL.c ****         if(CapSense_centroid[CapSense_POS_NEXT] > noiseThreshold)
 2144              		.loc 1 1671 0
 2145 0106 254B     		ldr	r3, .L137+4
 2146 0108 9B78     		ldrb	r3, [r3, #2]
 2147 010a 3022     		mov	r2, #48
 2148 010c BA18     		add	r2, r7, r2
 2149 010e 1278     		ldrb	r2, [r2]
 2150 0110 9A42     		cmp	r2, r3
 2151 0112 09D2     		bcs	.L134
1672:.\Generated_Source\PSoC4/CapSense_CSHL.c ****         {
1673:.\Generated_Source\PSoC4/CapSense_CSHL.c ****             CapSense_centroid[CapSense_POS_NEXT] -= noiseThreshold;
 2152              		.loc 1 1673 0
 2153 0114 214B     		ldr	r3, .L137+4
 2154 0116 9A78     		ldrb	r2, [r3, #2]
 2155 0118 3023     		mov	r3, #48
 2156 011a FB18     		add	r3, r7, r3
 2157 011c 1B78     		ldrb	r3, [r3]
 2158 011e D31A     		sub	r3, r2, r3
 2159 0120 DAB2     		uxtb	r2, r3
 2160 0122 1E4B     		ldr	r3, .L137+4
 2161 0124 9A70     		strb	r2, [r3, #2]
 2162 0126 02E0     		b	.L135
 2163              	.L134:
1674:.\Generated_Source\PSoC4/CapSense_CSHL.c ****         }
1675:.\Generated_Source\PSoC4/CapSense_CSHL.c ****         else
1676:.\Generated_Source\PSoC4/CapSense_CSHL.c ****         {
1677:.\Generated_Source\PSoC4/CapSense_CSHL.c ****             CapSense_centroid[CapSense_POS_NEXT] = 0u;
 2164              		.loc 1 1677 0
 2165 0128 1C4B     		ldr	r3, .L137+4
 2166 012a 0022     		mov	r2, #0
 2167 012c 9A70     		strb	r2, [r3, #2]
 2168              	.L135:
1678:.\Generated_Source\PSoC4/CapSense_CSHL.c ****         }
1679:.\Generated_Source\PSoC4/CapSense_CSHL.c ****         
1680:.\Generated_Source\PSoC4/CapSense_CSHL.c ****         
1681:.\Generated_Source\PSoC4/CapSense_CSHL.c ****         /* Si+1 - Si-1 */
1682:.\Generated_Source\PSoC4/CapSense_CSHL.c ****         numerator = (uint32) CapSense_centroid[CapSense_POS_NEXT] -
 2169              		.loc 1 1682 0
 2170 012e 1B4B     		ldr	r3, .L137+4
 2171 0130 9B78     		ldrb	r3, [r3, #2]
 2172 0132 1A1C     		mov	r2, r3
1683:.\Generated_Source\PSoC4/CapSense_CSHL.c ****                     (uint32) CapSense_centroid[CapSense_POS_PREV];
ARM GAS  C:\Users\sunyi\AppData\Local\Temp\ccDxWxH0.s 			page 69


 2173              		.loc 1 1683 0
 2174 0134 194B     		ldr	r3, .L137+4
 2175 0136 1B78     		ldrb	r3, [r3]
1682:.\Generated_Source\PSoC4/CapSense_CSHL.c ****                     (uint32) CapSense_centroid[CapSense_POS_PREV];
 2176              		.loc 1 1682 0
 2177 0138 D31A     		sub	r3, r2, r3
 2178 013a 3B61     		str	r3, [r7, #16]
1684:.\Generated_Source\PSoC4/CapSense_CSHL.c **** 
1685:.\Generated_Source\PSoC4/CapSense_CSHL.c ****         /* Si+1 + Si + Si-1 */
1686:.\Generated_Source\PSoC4/CapSense_CSHL.c ****         denominator = (int32) CapSense_centroid[CapSense_POS_PREV] + 
 2179              		.loc 1 1686 0
 2180 013c 174B     		ldr	r3, .L137+4
 2181 013e 1B78     		ldrb	r3, [r3]
 2182 0140 1A1C     		mov	r2, r3
1687:.\Generated_Source\PSoC4/CapSense_CSHL.c ****                       (int32) CapSense_centroid[CapSense_POS] + 
 2183              		.loc 1 1687 0
 2184 0142 164B     		ldr	r3, .L137+4
 2185 0144 5B78     		ldrb	r3, [r3, #1]
1686:.\Generated_Source\PSoC4/CapSense_CSHL.c ****                       (int32) CapSense_centroid[CapSense_POS] + 
 2186              		.loc 1 1686 0
 2187 0146 D318     		add	r3, r2, r3
1688:.\Generated_Source\PSoC4/CapSense_CSHL.c ****                       (int32) CapSense_centroid[CapSense_POS_NEXT];
 2188              		.loc 1 1688 0
 2189 0148 144A     		ldr	r2, .L137+4
 2190 014a 9278     		ldrb	r2, [r2, #2]
1686:.\Generated_Source\PSoC4/CapSense_CSHL.c ****                       (int32) CapSense_centroid[CapSense_POS] + 
 2191              		.loc 1 1686 0
 2192 014c 9B18     		add	r3, r3, r2
 2193 014e FB60     		str	r3, [r7, #12]
1689:.\Generated_Source\PSoC4/CapSense_CSHL.c ****         
1690:.\Generated_Source\PSoC4/CapSense_CSHL.c ****         /* (numerator/denominator) + maximum */
1691:.\Generated_Source\PSoC4/CapSense_CSHL.c ****         denominator = (((int32)(uint32)((uint32)numerator << 8u)/denominator) + (int32)(uint32)((ui
 2194              		.loc 1 1691 0
 2195 0150 3B69     		ldr	r3, [r7, #16]
 2196 0152 1B02     		lsl	r3, r3, #8
 2197 0154 181C     		mov	r0, r3
 2198 0156 F968     		ldr	r1, [r7, #12]
 2199 0158 FFF7FEFF 		bl	__aeabi_idiv
 2200 015c 031C     		mov	r3, r0
 2201 015e 1A1C     		mov	r2, r3
 2202 0160 FB1D     		add	r3, r7, #7
 2203 0162 1B78     		ldrb	r3, [r3]
 2204 0164 1B02     		lsl	r3, r3, #8
 2205 0166 D318     		add	r3, r2, r3
 2206 0168 FB60     		str	r3, [r7, #12]
1692:.\Generated_Source\PSoC4/CapSense_CSHL.c **** 
1693:.\Generated_Source\PSoC4/CapSense_CSHL.c ****         #if(CapSense_TOTAL_RADIAL_SLIDERS_COUNT > 0u)
1694:.\Generated_Source\PSoC4/CapSense_CSHL.c ****             /* Only required for RADIAL Slider */
1695:.\Generated_Source\PSoC4/CapSense_CSHL.c ****             if(denominator < 0)
1696:.\Generated_Source\PSoC4/CapSense_CSHL.c ****             {
1697:.\Generated_Source\PSoC4/CapSense_CSHL.c ****                 denominator += (int32)((uint16)((uint16) count << 8u));
1698:.\Generated_Source\PSoC4/CapSense_CSHL.c ****             }
1699:.\Generated_Source\PSoC4/CapSense_CSHL.c ****         #endif /* (CapSense_TOTAL_RADIAL_SLIDERS_COUNT > 0u) */
1700:.\Generated_Source\PSoC4/CapSense_CSHL.c ****         
1701:.\Generated_Source\PSoC4/CapSense_CSHL.c ****         denominator *= (int16)resolution;
 2207              		.loc 1 1701 0
 2208 016a BB1C     		add	r3, r7, #2
ARM GAS  C:\Users\sunyi\AppData\Local\Temp\ccDxWxH0.s 			page 70


 2209 016c 1B88     		ldrh	r3, [r3]
 2210 016e 1AB2     		sxth	r2, r3
 2211 0170 FB68     		ldr	r3, [r7, #12]
 2212 0172 5343     		mul	r3, r2
 2213 0174 FB60     		str	r3, [r7, #12]
1702:.\Generated_Source\PSoC4/CapSense_CSHL.c ****         
1703:.\Generated_Source\PSoC4/CapSense_CSHL.c ****         /* Round result and put it to uint8 */
1704:.\Generated_Source\PSoC4/CapSense_CSHL.c ****         position = ((uint8) HI16((uint32)denominator + CapSense_CENTROID_ROUND_VALUE));
 2214              		.loc 1 1704 0
 2215 0176 FB68     		ldr	r3, [r7, #12]
 2216 0178 FE22     		mov	r2, #254
 2217 017a D201     		lsl	r2, r2, #7
 2218 017c 9446     		mov	ip, r2
 2219 017e 6344     		add	r3, r3, ip
 2220 0180 1A0C     		lsr	r2, r3, #16
 2221 0182 0B23     		mov	r3, #11
 2222 0184 FB18     		add	r3, r7, r3
 2223 0186 1A70     		strb	r2, [r3]
1705:.\Generated_Source\PSoC4/CapSense_CSHL.c **** 
1706:.\Generated_Source\PSoC4/CapSense_CSHL.c ****         return (position);
 2224              		.loc 1 1706 0
 2225 0188 0B23     		mov	r3, #11
 2226 018a FB18     		add	r3, r7, r3
 2227 018c 1B78     		ldrb	r3, [r3]
1707:.\Generated_Source\PSoC4/CapSense_CSHL.c ****     }    
 2228              		.loc 1 1707 0
 2229 018e 181C     		mov	r0, r3
 2230 0190 BD46     		mov	sp, r7
 2231 0192 08B0     		add	sp, sp, #32
 2232              		@ sp needed
 2233 0194 B0BD     		pop	{r4, r5, r7, pc}
 2234              	.L138:
 2235 0196 C046     		.align	2
 2236              	.L137:
 2237 0198 00000000 		.word	CapSense_sensorSignal
 2238 019c 24000000 		.word	CapSense_centroid.5431
 2239              		.cfi_endproc
 2240              	.LFE63:
 2241              		.size	CapSense_CalcCentroid, .-CapSense_CalcCentroid
 2242              		.section	.text.CapSense_GetCentroidPos,"ax",%progbits
 2243              		.align	2
 2244              		.global	CapSense_GetCentroidPos
 2245              		.code	16
 2246              		.thumb_func
 2247              		.type	CapSense_GetCentroidPos, %function
 2248              	CapSense_GetCentroidPos:
 2249              	.LFB64:
1708:.\Generated_Source\PSoC4/CapSense_CSHL.c **** #endif /* (CapSense_TOTAL_CENTROIDS_BASIC_COUNT) */
1709:.\Generated_Source\PSoC4/CapSense_CSHL.c **** 
1710:.\Generated_Source\PSoC4/CapSense_CSHL.c **** 
1711:.\Generated_Source\PSoC4/CapSense_CSHL.c **** #if((CapSense_TOTAL_RADIAL_SLIDERS_COUNT > 0u) || (CapSense_TOTAL_LINEAR_SLIDERS_COUNT > 0u))
1712:.\Generated_Source\PSoC4/CapSense_CSHL.c ****     /*******************************************************************************
1713:.\Generated_Source\PSoC4/CapSense_CSHL.c ****     * Function Name: CapSense_GetCentroidPos
1714:.\Generated_Source\PSoC4/CapSense_CSHL.c ****     ********************************************************************************
1715:.\Generated_Source\PSoC4/CapSense_CSHL.c ****     *
1716:.\Generated_Source\PSoC4/CapSense_CSHL.c ****     * Summary:
1717:.\Generated_Source\PSoC4/CapSense_CSHL.c ****     *  Checks the CapSense_Signal[ ] array for a centroid within
ARM GAS  C:\Users\sunyi\AppData\Local\Temp\ccDxWxH0.s 			page 71


1718:.\Generated_Source\PSoC4/CapSense_CSHL.c ****     *  a slider specified range. The centroid position is calculated according to the resolution
1719:.\Generated_Source\PSoC4/CapSense_CSHL.c ****     *  specified in the CapSense customizer. The position filters are applied to the
1720:.\Generated_Source\PSoC4/CapSense_CSHL.c ****     *  result if enabled.
1721:.\Generated_Source\PSoC4/CapSense_CSHL.c ****     *
1722:.\Generated_Source\PSoC4/CapSense_CSHL.c ****     * Parameters:
1723:.\Generated_Source\PSoC4/CapSense_CSHL.c ****     *  widget:  Widget number.
1724:.\Generated_Source\PSoC4/CapSense_CSHL.c ****     *  For every linear slider widget there are defines in this format:
1725:.\Generated_Source\PSoC4/CapSense_CSHL.c ****     *  #define CapSense_"widget_name"__LS           5
1726:.\Generated_Source\PSoC4/CapSense_CSHL.c ****     * 
1727:.\Generated_Source\PSoC4/CapSense_CSHL.c ****     * Return:
1728:.\Generated_Source\PSoC4/CapSense_CSHL.c ****     *  Returns a position value of the linear slider.
1729:.\Generated_Source\PSoC4/CapSense_CSHL.c **** 	*
1730:.\Generated_Source\PSoC4/CapSense_CSHL.c **** 	* Global Variables:
1731:.\Generated_Source\PSoC4/CapSense_CSHL.c **** 	*  None
1732:.\Generated_Source\PSoC4/CapSense_CSHL.c **** 	*
1733:.\Generated_Source\PSoC4/CapSense_CSHL.c ****     * Side Effects:
1734:.\Generated_Source\PSoC4/CapSense_CSHL.c ****     *  If any sensor within the slider widget is active, the function returns values
1735:.\Generated_Source\PSoC4/CapSense_CSHL.c ****     *  from zero to the API resolution value set in the CapSense customizer. If no
1736:.\Generated_Source\PSoC4/CapSense_CSHL.c ****     *  sensors are active, the function returns 0xFFFF. If an error occurs during
1737:.\Generated_Source\PSoC4/CapSense_CSHL.c ****     *  execution of the centroid/diplexing algorithm, the function returns 0xFFFF.
1738:.\Generated_Source\PSoC4/CapSense_CSHL.c ****     *  There are no checks of the widget type argument provided to this function.
1739:.\Generated_Source\PSoC4/CapSense_CSHL.c ****     *  The unproper widget type provided will cause unexpected position calculations.
1740:.\Generated_Source\PSoC4/CapSense_CSHL.c ****     *
1741:.\Generated_Source\PSoC4/CapSense_CSHL.c ****     * Note:
1742:.\Generated_Source\PSoC4/CapSense_CSHL.c ****     *  If noise counts on the slider segments are greater than the noise
1743:.\Generated_Source\PSoC4/CapSense_CSHL.c ****     *  threshold, this subroutine may generate a false centroid result. The noise
1744:.\Generated_Source\PSoC4/CapSense_CSHL.c ****     *  threshold should be set carefully (high enough above the noise level) so
1745:.\Generated_Source\PSoC4/CapSense_CSHL.c ****     *  that noise will not generate a false centroid.
1746:.\Generated_Source\PSoC4/CapSense_CSHL.c ****     *******************************************************************************/
1747:.\Generated_Source\PSoC4/CapSense_CSHL.c ****     uint16 CapSense_GetCentroidPos(uint32 widget)
1748:.\Generated_Source\PSoC4/CapSense_CSHL.c ****     {
 2250              		.loc 1 1748 0
 2251              		.cfi_startproc
 2252 0000 90B5     		push	{r4, r7, lr}
 2253              		.cfi_def_cfa_offset 12
 2254              		.cfi_offset 4, -12
 2255              		.cfi_offset 7, -8
 2256              		.cfi_offset 14, -4
 2257 0002 89B0     		sub	sp, sp, #36
 2258              		.cfi_def_cfa_offset 48
 2259 0004 02AF     		add	r7, sp, #8
 2260              		.cfi_def_cfa 7, 40
 2261 0006 7860     		str	r0, [r7, #4]
1749:.\Generated_Source\PSoC4/CapSense_CSHL.c ****         #if (CapSense_IS_DIPLEX_SLIDER)
1750:.\Generated_Source\PSoC4/CapSense_CSHL.c ****             const uint8 *diplex;
1751:.\Generated_Source\PSoC4/CapSense_CSHL.c ****         #endif /* (CapSense_IS_DIPLEX_SLIDER) */
1752:.\Generated_Source\PSoC4/CapSense_CSHL.c ****                 
1753:.\Generated_Source\PSoC4/CapSense_CSHL.c ****         #if (0u != CapSense_LINEAR_SLIDERS_POS_FILTERS_MASK)
1754:.\Generated_Source\PSoC4/CapSense_CSHL.c ****             uint8 posIndex;
1755:.\Generated_Source\PSoC4/CapSense_CSHL.c ****             uint8 firstTimeIndex = CapSense_posFiltersData[widget];
 2262              		.loc 1 1755 0
 2263 0008 1523     		mov	r3, #21
 2264 000a FB18     		add	r3, r7, r3
 2265 000c 6649     		ldr	r1, .L147
 2266 000e 7A68     		ldr	r2, [r7, #4]
 2267 0010 8A18     		add	r2, r1, r2
 2268 0012 1278     		ldrb	r2, [r2]
ARM GAS  C:\Users\sunyi\AppData\Local\Temp\ccDxWxH0.s 			page 72


 2269 0014 1A70     		strb	r2, [r3]
1756:.\Generated_Source\PSoC4/CapSense_CSHL.c ****             uint8 posFiltersMask = CapSense_posFiltersMask[widget];  
 2270              		.loc 1 1756 0
 2271 0016 1423     		mov	r3, #20
 2272 0018 FB18     		add	r3, r7, r3
 2273 001a 6449     		ldr	r1, .L147+4
 2274 001c 7A68     		ldr	r2, [r7, #4]
 2275 001e 8A18     		add	r2, r1, r2
 2276 0020 1278     		ldrb	r2, [r2]
 2277 0022 1A70     		strb	r2, [r3]
1757:.\Generated_Source\PSoC4/CapSense_CSHL.c ****         #endif /* (0u != CapSense_LINEAR_SLIDERS_POS_FILTERS_MASK) */
1758:.\Generated_Source\PSoC4/CapSense_CSHL.c **** 
1759:.\Generated_Source\PSoC4/CapSense_CSHL.c ****         #if ((0u != (CapSense_MEDIAN_FILTER & CapSense_LINEAR_SLIDERS_POS_FILTERS_MASK)) || \
1760:.\Generated_Source\PSoC4/CapSense_CSHL.c ****              (0u != (CapSense_AVERAGING_FILTER & CapSense_LINEAR_SLIDERS_POS_FILTERS_MASK)))
1761:.\Generated_Source\PSoC4/CapSense_CSHL.c ****             uint8 tempPos;
1762:.\Generated_Source\PSoC4/CapSense_CSHL.c ****         #endif /* ((0u != (CapSense_MEDIAN_FILTER & CapSense_LINEAR_SLIDERS_POS_FILTERS_MASK)) || \
1763:.\Generated_Source\PSoC4/CapSense_CSHL.c ****                *   (0u != (CapSense_AVERAGING_FILTER & CapSense_LINEAR_SLIDERS_POS_FILTERS_MASK)))
1764:.\Generated_Source\PSoC4/CapSense_CSHL.c ****                */
1765:.\Generated_Source\PSoC4/CapSense_CSHL.c **** 
1766:.\Generated_Source\PSoC4/CapSense_CSHL.c ****         uint8 maximum;
1767:.\Generated_Source\PSoC4/CapSense_CSHL.c ****         uint16 position;
1768:.\Generated_Source\PSoC4/CapSense_CSHL.c ****         uint8 offset = CapSense_rawDataIndex[widget];
 2278              		.loc 1 1768 0
 2279 0024 1323     		mov	r3, #19
 2280 0026 FB18     		add	r3, r7, r3
 2281 0028 0022     		mov	r2, #0
 2282 002a 1A70     		strb	r2, [r3]
1769:.\Generated_Source\PSoC4/CapSense_CSHL.c ****         uint8 count = CapSense_numberOfSensors[widget];
 2283              		.loc 1 1769 0
 2284 002c 1223     		mov	r3, #18
 2285 002e FB18     		add	r3, r7, r3
 2286 0030 0522     		mov	r2, #5
 2287 0032 1A70     		strb	r2, [r3]
1770:.\Generated_Source\PSoC4/CapSense_CSHL.c ****                         
1771:.\Generated_Source\PSoC4/CapSense_CSHL.c ****         #if (CapSense_IS_DIPLEX_SLIDER)
1772:.\Generated_Source\PSoC4/CapSense_CSHL.c ****             if(widget < CapSense_TOTAL_DIPLEXED_SLIDERS_COUNT)
1773:.\Generated_Source\PSoC4/CapSense_CSHL.c ****             {
1774:.\Generated_Source\PSoC4/CapSense_CSHL.c ****                 maximum = CapSense_diplexTable[widget];
1775:.\Generated_Source\PSoC4/CapSense_CSHL.c ****                 diplex = &CapSense_diplexTable[maximum];
1776:.\Generated_Source\PSoC4/CapSense_CSHL.c ****             }
1777:.\Generated_Source\PSoC4/CapSense_CSHL.c ****             else
1778:.\Generated_Source\PSoC4/CapSense_CSHL.c ****             {
1779:.\Generated_Source\PSoC4/CapSense_CSHL.c ****                 diplex = 0u;
1780:.\Generated_Source\PSoC4/CapSense_CSHL.c ****             }
1781:.\Generated_Source\PSoC4/CapSense_CSHL.c ****         #endif /* (CapSense_IS_DIPLEX_SLIDER) */
1782:.\Generated_Source\PSoC4/CapSense_CSHL.c **** 
1783:.\Generated_Source\PSoC4/CapSense_CSHL.c **** 		/* Find Maximum within centroid */      
1784:.\Generated_Source\PSoC4/CapSense_CSHL.c **** 		#if (CapSense_IS_DIPLEX_SLIDER)        
1785:.\Generated_Source\PSoC4/CapSense_CSHL.c **** 			maximum = CapSense_FindMaximum(offset, count, (uint8)CapSense_fingerThreshold[widget], diplex);
1786:.\Generated_Source\PSoC4/CapSense_CSHL.c **** 		#else
1787:.\Generated_Source\PSoC4/CapSense_CSHL.c **** 			maximum = CapSense_FindMaximum(offset, count, (uint8)CapSense_fingerThreshold[widget]);
 2288              		.loc 1 1787 0
 2289 0034 5E4A     		ldr	r2, .L147+8
 2290 0036 7B68     		ldr	r3, [r7, #4]
 2291 0038 D318     		add	r3, r2, r3
 2292 003a 1A78     		ldrb	r2, [r3]
 2293 003c 1123     		mov	r3, #17
ARM GAS  C:\Users\sunyi\AppData\Local\Temp\ccDxWxH0.s 			page 73


 2294 003e FC18     		add	r4, r7, r3
 2295 0040 1323     		mov	r3, #19
 2296 0042 FB18     		add	r3, r7, r3
 2297 0044 1978     		ldrb	r1, [r3]
 2298 0046 1223     		mov	r3, #18
 2299 0048 FB18     		add	r3, r7, r3
 2300 004a 1B78     		ldrb	r3, [r3]
 2301 004c 081C     		mov	r0, r1
 2302 004e 191C     		mov	r1, r3
 2303 0050 FFF7FEFF 		bl	CapSense_FindMaximum
 2304 0054 031C     		mov	r3, r0
 2305 0056 2370     		strb	r3, [r4]
1788:.\Generated_Source\PSoC4/CapSense_CSHL.c **** 		#endif /* (CapSense_IS_DIPLEX_SLIDER) */
1789:.\Generated_Source\PSoC4/CapSense_CSHL.c **** 
1790:.\Generated_Source\PSoC4/CapSense_CSHL.c ****         if (maximum != 0xFFu)
 2306              		.loc 1 1790 0
 2307 0058 1123     		mov	r3, #17
 2308 005a FB18     		add	r3, r7, r3
 2309 005c 1B78     		ldrb	r3, [r3]
 2310 005e FF2B     		cmp	r3, #255
 2311 0060 00D1     		bne	.LCB2019
 2312 0062 89E0     		b	.L140	@long jump
 2313              	.LCB2019:
1791:.\Generated_Source\PSoC4/CapSense_CSHL.c ****         {
1792:.\Generated_Source\PSoC4/CapSense_CSHL.c ****             /* Calculate centroid */
1793:.\Generated_Source\PSoC4/CapSense_CSHL.c ****             position = (uint16) CapSense_CalcCentroid(maximum, 
 2314              		.loc 1 1793 0
 2315 0064 C823     		mov	r3, #200
 2316 0066 5C01     		lsl	r4, r3, #5
 2317 0068 524A     		ldr	r2, .L147+12
 2318 006a 7B68     		ldr	r3, [r7, #4]
 2319 006c D318     		add	r3, r2, r3
 2320 006e 1B78     		ldrb	r3, [r3]
 2321 0070 1122     		mov	r2, #17
 2322 0072 BA18     		add	r2, r7, r2
 2323 0074 1078     		ldrb	r0, [r2]
 2324 0076 1322     		mov	r2, #19
 2325 0078 BA18     		add	r2, r7, r2
 2326 007a 1178     		ldrb	r1, [r2]
 2327 007c 1222     		mov	r2, #18
 2328 007e BA18     		add	r2, r7, r2
 2329 0080 1278     		ldrb	r2, [r2]
 2330 0082 0093     		str	r3, [sp]
 2331 0084 231C     		mov	r3, r4
 2332 0086 FFF7FEFF 		bl	CapSense_CalcCentroid
 2333 008a 031C     		mov	r3, r0
 2334 008c 1A1C     		mov	r2, r3
 2335 008e 1623     		mov	r3, #22
 2336 0090 FB18     		add	r3, r7, r3
 2337 0092 1A80     		strh	r2, [r3]
1794:.\Generated_Source\PSoC4/CapSense_CSHL.c ****                          offset, count, CapSense_centroidMult[widget], CapSense_noiseThreshold[widg
1795:.\Generated_Source\PSoC4/CapSense_CSHL.c **** 
1796:.\Generated_Source\PSoC4/CapSense_CSHL.c ****             #if (0u != CapSense_LINEAR_SLIDERS_POS_FILTERS_MASK)
1797:.\Generated_Source\PSoC4/CapSense_CSHL.c ****                 /* Check if this linear slider has enabled filters */
1798:.\Generated_Source\PSoC4/CapSense_CSHL.c ****                 if (0u != (posFiltersMask & CapSense_ANY_POS_FILTER))
 2338              		.loc 1 1798 0
 2339 0094 1423     		mov	r3, #20
ARM GAS  C:\Users\sunyi\AppData\Local\Temp\ccDxWxH0.s 			page 74


 2340 0096 FB18     		add	r3, r7, r3
 2341 0098 1B78     		ldrb	r3, [r3]
 2342 009a 1F22     		mov	r2, #31
 2343 009c 1340     		and	r3, r2
 2344 009e 00D1     		bne	.LCB2049
 2345 00a0 7BE0     		b	.L145	@long jump
 2346              	.LCB2049:
1799:.\Generated_Source\PSoC4/CapSense_CSHL.c ****                 {
1800:.\Generated_Source\PSoC4/CapSense_CSHL.c ****                     /* Calculate position to store filters data */
